(dp0
S'self.damping'
p1
(lp2
F0.66
aF0.43560000000000004
aF0.28749600000000003
aF0.18974736000000003
aF0.12523325760000004
aF0.08265395001600002
aF0.05455160701056002
aF0.03600406062696961
aF0.023762680013799945
aF0.015683368809107964
aF0.010351023414011257
aF0.00683167545324743
aF0.004508905799143304
aF0.002975877827434581
aF0.0019640793661068233
aF0.0012962923816305036
aF0.0008555529718761324
aF0.0005646649614382474
aF0.0003726788745492433
aF0.0003726788745492433
aF0.0002459680572025006
aF0.0002459680572025006
aF0.0002459680572025006
aF0.0002459680572025006
aF0.0002459680572025006
aF0.0002459680572025006
aF0.0002459680572025006
aF0.0002459680572025006
aF0.0002459680572025006
aF0.0002459680572025006
aF0.0002459680572025006
aF0.0002459680572025006
aF0.0002459680572025006
aF0.0002459680572025006
aF0.0002459680572025006
aF0.0002459680572025006
aF0.0002459680572025006
aF0.0002459680572025006
aF0.0002459680572025006
aF0.0002459680572025006
aF0.0002459680572025006
asS'np.linalg.norm(delta)'
p3
(lp4
cnumpy.core.multiarray
scalar
p5
(cnumpy
dtype
p6
(S'f4'
p7
I0
I1
tp8
Rp9
(I3
S'<'
p10
NNNI-1
I-1
I0
tp11
bS'\x07\x88\x8b?'
p12
tp13
Rp14
ag5
(g9
S'\x96\xf8\x1a?'
p15
tp16
Rp17
ag5
(g9
S'\xa5\x80\x0f?'
p18
tp19
Rp20
ag5
(g9
S'\xf0\xdd ?'
p21
tp22
Rp23
ag5
(g9
S'\xc2m7?'
p24
tp25
Rp26
ag5
(g9
S'\xbf\xed*?'
p27
tp28
Rp29
ag5
(g9
S"\xe5\xbf'?"
p30
tp31
Rp32
ag5
(g9
S'\xc3\x10:?'
p33
tp34
Rp35
ag5
(g9
S'!\xdbe?'
p36
tp37
Rp38
ag5
(g9
S'\x8a\xd9\xb2?'
p39
tp40
Rp41
ag5
(g9
S'\xf8f\x0f@'
p42
tp43
Rp44
ag5
(g9
S'\x02 U@'
p45
tp46
Rp47
ag5
(g9
S'\xd3]T@'
p48
tp49
Rp50
ag5
(g9
S'\xdd\xe0S@'
p51
tp52
Rp53
ag5
(g9
S'Q\xe9=@'
p54
tp55
Rp56
ag5
(g9
S'"v*@'
p57
tp58
Rp59
ag5
(g9
S'\x19\xb3\x15@'
p60
tp61
Rp62
ag5
(g9
S'\t\x17\x06@'
p63
tp64
Rp65
ag5
(g9
S'pu\xf1?'
p66
tp67
Rp68
ag5
(g9
S'!`\xdf?'
p69
tp70
Rp71
ag5
(g9
S'\x8dr\xce?'
p72
tp73
Rp74
ag5
(g9
S'"3\xc1?'
p75
tp76
Rp77
ag5
(g9
S'\x1fX\xb4?'
p78
tp79
Rp80
ag5
(g9
S'\xb1m\xa9?'
p81
tp82
Rp83
ag5
(g9
S'C\xe5\x9e?'
p84
tp85
Rp86
ag5
(g9
S'\x0e\xb8\x95?'
p87
tp88
Rp89
ag5
(g9
S'J\xd6\x8c?'
p90
tp91
Rp92
ag5
(g9
S'\x01\xfe\x84?'
p93
tp94
Rp95
ag5
(g9
S'a\xb8z?'
p96
tp97
Rp98
ag5
(g9
S'\xd7\xc1l?'
p99
tp100
Rp101
ag5
(g9
S'\xac\xa0_?'
p102
tp103
Rp104
ag5
(g9
S'\x81\x84S?'
p105
tp106
Rp107
ag5
(g9
S'\x8b\xf7G?'
p108
tp109
Rp110
ag5
(g9
S'\x833=?'
p111
tp112
Rp113
ag5
(g9
S'\x1b\x053?'
p114
tp115
Rp116
ag5
(g9
S'\xf9\x93)?'
p117
tp118
Rp119
ag5
(g9
S'jj ?'
p120
tp121
Rp122
ag5
(g9
S'\xdc\x03\x18?'
p123
tp124
Rp125
ag5
(g9
S'\xf2\xed\x0f?'
p126
tp127
Rp128
ag5
(g9
S'\x94q\x08?'
p129
tp130
Rp131
ag5
(g9
S'\x99$\x01?'
p132
tp133
Rp134
asS'new_err'
p135
(lp136
g5
(g6
(S'f8'
p137
I0
I1
tp138
Rp139
(I3
S'<'
p140
NNNI-1
I-1
I0
tp141
bS'\x00\x00\x00\x00?\xd2\x08@'
p142
tp143
Rp144
ag5
(g139
S'\x00\x00\x00\x00\xd7\xb6\x04@'
p145
tp146
Rp147
ag5
(g139
S'I\x92$I\x17\xe0\x02@'
p148
tp149
Rp150
ag5
(g139
S'n\xdb\xb6\xed\tj\x01@'
p151
tp152
Rp153
ag5
(g139
S"I\x92$I '\x00@"
p154
tp155
Rp156
ag5
(g139
S'\xb7m\xdb\xb6=\xd8\xfe?'
p157
tp158
Rp159
ag5
(g139
S'%I\x92$\x06\xf2\xfd?'
p160
tp161
Rp162
ag5
(g139
S'\xb7m\xdb\xb6v/\xfd?'
p163
tp164
Rp165
ag5
(g139
S'\xdb\xb6m\xdb\xdeA\xfc?'
p166
tp167
Rp168
ag5
(g139
S'\x00\x00\x00\x00b\x0b\xfa?'
p169
tp170
Rp171
ag5
(g139
S'\x00\x00\x00\x00\xef\x83\xf5?'
p172
tp173
Rp174
ag5
(g139
S'n\xdb\xb6mZy\xed?'
p175
tp176
Rp177
ag5
(g139
S'n\xdb\xb6m\xe3\xdb\xe1?'
p178
tp179
Rp180
ag5
(g139
S'\x00\x00\x00\x80\xd7W\xd0?'
p181
tp182
Rp183
ag5
(g139
S'\xdb\xb6m\xdb\xb4\xf5\xb6?'
p184
tp185
Rp186
ag5
(g139
S'\xb7m\xdb\xb6\rw\x9a?'
p187
tp188
Rp189
ag5
(g139
S'\xb7m\xdb\xb6\x7fa\x84?'
p190
tp191
Rp192
ag5
(g139
S'%I\x92$Y\xbcs?'
p193
tp194
Rp195
ag5
(g139
S'%I\x92$\xe6\xbac?'
p196
tp197
Rp198
ag5
(g139
S'\xdb\xb6m\xdb\x086Z?'
p199
tp200
Rp201
ag5
(g139
S'\xdb\xb6m\xdbY\x12Q?'
p202
tp203
Rp204
ag5
(g139
S'%I\x92$\\{J?'
p205
tp206
Rp207
ag5
(g139
S'\x92$I\x92\x18\xadF?'
p208
tp209
Rp210
ag5
(g139
S'\xb7m\xdb\xb6\xe23D?'
p211
tp212
Rp213
ag5
(g139
S'\x00\x00\x00\x00\xc7\x0bB?'
p214
tp215
Rp216
ag5
(g139
S'n\xdb\xb6\xedA&@?'
p217
tp218
Rp219
ag5
(g139
S'%I\x92$R\xb1=?'
p220
tp221
Rp222
ag5
(g139
S'I\x92$I`\xce:?'
p223
tp224
Rp225
ag5
(g139
S'\x92$I\x92&\xb39?'
p226
tp227
Rp228
ag5
(g139
S'\x92$I\x92\x8d\xf97?'
p229
tp230
Rp231
ag5
(g139
S'%I\x92$\xd8\x0e7?'
p232
tp233
Rp234
ag5
(g139
S'\xdb\xb6m\xdb\x9906?'
p235
tp236
Rp237
ag5
(g139
S'\xdb\xb6m\xdb\xb8\xae5?'
p238
tp239
Rp240
ag5
(g139
S'n\xdb\xb6mv?5?'
p241
tp242
Rp243
ag5
(g139
S'n\xdb\xb6mO\xd84?'
p244
tp245
Rp246
ag5
(g139
S'n\xdb\xb6mfu4?'
p247
tp248
Rp249
ag5
(g139
S'\xdb\xb6m\xdb\xd5\xff3?'
p250
tp251
Rp252
ag5
(g139
S'\xb7m\xdb\xb6\xf3i3?'
p253
tp254
Rp255
ag5
(g139
S'\xb7m\xdb\xb6\xdd\xde2?'
p256
tp257
Rp258
ag5
(g139
S'I\x92$I\xfdK2?'
p259
tp260
Rp261
ag5
(g139
S'n\xdb\xb6mw\xba1?'
p262
tp263
Rp264
asS'l_rate'
p265
(lp266
F1.0
aF1.0
aF1.0
aF1.0
aF1.0
aF1.0
aF1.0
aF1.0
aF1.0
aF1.0
aF1.0
aF1.0
aF1.0
aF1.0
aF1.0
aF1.0
aF1.0
aF1.0
aF1.0
aF1.0
aF1.0
aF1.0
aF1.0
aF1.0
aF1.0
aF1.0
aF1.0
aF1.0
aF1.0
aF1.0
aF1.0
aF1.0
aF1.0
aF1.0
aF1.0
aF1.0
aF1.0
aF1.0
aF1.0
aF1.0
aF1.0
asS'test_errs[-1]'
p267
(lp268
g5
(g139
S'\x00\x00\x00\x00?\xd2\x08@'
p269
tp270
Rp271
ag5
(g139
S'\x00\x00\x00\x00\xd7\xb6\x04@'
p272
tp273
Rp274
ag5
(g139
S'I\x92$I\x17\xe0\x02@'
p275
tp276
Rp277
ag5
(g139
S'n\xdb\xb6\xed\tj\x01@'
p278
tp279
Rp280
ag5
(g139
S"I\x92$I '\x00@"
p281
tp282
Rp283
ag5
(g139
S'\xb7m\xdb\xb6=\xd8\xfe?'
p284
tp285
Rp286
ag5
(g139
S'%I\x92$\x06\xf2\xfd?'
p287
tp288
Rp289
ag5
(g139
S'\xb7m\xdb\xb6v/\xfd?'
p290
tp291
Rp292
ag5
(g139
S'\xdb\xb6m\xdb\xdeA\xfc?'
p293
tp294
Rp295
ag5
(g139
S'\x00\x00\x00\x00b\x0b\xfa?'
p296
tp297
Rp298
ag5
(g139
S'\x00\x00\x00\x00\xef\x83\xf5?'
p299
tp300
Rp301
ag5
(g139
S'n\xdb\xb6mZy\xed?'
p302
tp303
Rp304
ag5
(g139
S'n\xdb\xb6m\xe3\xdb\xe1?'
p305
tp306
Rp307
ag5
(g139
S'\x00\x00\x00\x80\xd7W\xd0?'
p308
tp309
Rp310
ag5
(g139
S'\xdb\xb6m\xdb\xb4\xf5\xb6?'
p311
tp312
Rp313
ag5
(g139
S'\xb7m\xdb\xb6\rw\x9a?'
p314
tp315
Rp316
ag5
(g139
S'\xb7m\xdb\xb6\x7fa\x84?'
p317
tp318
Rp319
ag5
(g139
S'%I\x92$Y\xbcs?'
p320
tp321
Rp322
ag5
(g139
S'%I\x92$\xe6\xbac?'
p323
tp324
Rp325
ag5
(g139
S'\xdb\xb6m\xdb\x086Z?'
p326
tp327
Rp328
ag5
(g139
S'\xdb\xb6m\xdbY\x12Q?'
p329
tp330
Rp331
ag5
(g139
S'%I\x92$\\{J?'
p332
tp333
Rp334
ag5
(g139
S'\x92$I\x92\x18\xadF?'
p335
tp336
Rp337
ag5
(g139
S'\xb7m\xdb\xb6\xe23D?'
p338
tp339
Rp340
ag5
(g139
S'\x00\x00\x00\x00\xc7\x0bB?'
p341
tp342
Rp343
ag5
(g139
S'n\xdb\xb6\xedA&@?'
p344
tp345
Rp346
ag5
(g139
S'%I\x92$R\xb1=?'
p347
tp348
Rp349
ag5
(g139
S'I\x92$I`\xce:?'
p350
tp351
Rp352
ag5
(g139
S'\x92$I\x92&\xb39?'
p353
tp354
Rp355
ag5
(g139
S'\x92$I\x92\x8d\xf97?'
p356
tp357
Rp358
ag5
(g139
S'%I\x92$\xd8\x0e7?'
p359
tp360
Rp361
ag5
(g139
S'\xdb\xb6m\xdb\x9906?'
p362
tp363
Rp364
ag5
(g139
S'\xdb\xb6m\xdb\xb8\xae5?'
p365
tp366
Rp367
ag5
(g139
S'n\xdb\xb6mv?5?'
p368
tp369
Rp370
ag5
(g139
S'n\xdb\xb6mO\xd84?'
p371
tp372
Rp373
ag5
(g139
S'n\xdb\xb6mfu4?'
p374
tp375
Rp376
ag5
(g139
S'\xdb\xb6m\xdb\xd5\xff3?'
p377
tp378
Rp379
ag5
(g139
S'\xb7m\xdb\xb6\xf3i3?'
p380
tp381
Rp382
ag5
(g139
S'\xb7m\xdb\xb6\xdd\xde2?'
p383
tp384
Rp385
ag5
(g139
S'I\x92$I\xfdK2?'
p386
tp387
Rp388
ag5
(g139
S'n\xdb\xb6mw\xba1?'
p389
tp390
Rp391
asS'np.linalg.norm(self.W)'
p392
(lp393
g5
(g139
S'N4Y\xf4\x91\xe6W@'
p394
tp395
Rp396
ag5
(g139
S'\xbe&,\xd5{\xe6W@'
p397
tp398
Rp399
ag5
(g139
S'\xbbq\xa1\xde\xac\xe6W@'
p400
tp401
Rp402
ag5
(g139
S'\xe2DCYE\xe7W@'
p403
tp404
Rp405
ag5
(g139
S'@\x13v6]\xe8W@'
p406
tp407
Rp408
ag5
(g139
S'\x97\x86\xa0\xb9\xb0\xe9W@'
p409
tp410
Rp411
ag5
(g139
S'\x03\xac\x81\xc8)\xebW@'
p412
tp413
Rp414
ag5
(g139
S'\xb7\xb3\x194\x15\xedW@'
p415
tp416
Rp417
ag5
(g139
S'wG\xbb\xae\x0f\xf0W@'
p418
tp419
Rp420
ag5
(g139
S'\x8c\xbd\xeb4\x83\xf5W@'
p421
tp422
Rp423
ag5
(g139
S'!\xa9\xfdt\xfb\xfeW@'
p424
tp425
Rp426
ag5
(g139
S'sG\xe8"\xee\x11X@'
p427
tp428
Rp429
ag5
(g139
S"oK\xf9\xdb\xba'X@"
p430
tp431
Rp432
ag5
(g139
S'f\x17\xa2I\xd1@X@'
p433
tp434
Rp435
ag5
(g139
S'<\xd6\xb4"\x8aZX@'
p436
tp437
Rp438
ag5
(g139
S'\xd3|\x8e\x14yuX@'
p439
tp440
Rp441
ag5
(g139
S'.\x05\xb8\x9e\x90\x8fX@'
p442
tp443
Rp444
ag5
(g139
S'\xad*\xaf\xa5k\xa9X@'
p445
tp446
Rp447
ag5
(g139
S'\xa8\xab\xddBJ\xc2X@'
p448
tp449
Rp450
ag5
(g139
S'x=\x14\xbe\xf1\xdaX@'
p451
tp452
Rp453
ag5
(g139
S'\x07S\xb9\x85;\xf3X@'
p454
tp455
Rp456
ag5
(g139
S'~bOgP\x0bY@'
p457
tp458
Rp459
ag5
(g139
S'\xd1\xc3\xb3\xec\xf7"Y@'
p460
tp461
Rp462
ag5
(g139
S'\xe1N\x94K6:Y@'
p463
tp464
Rp465
ag5
(g139
S'\xf7g5\xa0\xe6PY@'
p466
tp467
Rp468
ag5
(g139
S'5\x1c).\rgY@'
p469
tp470
Rp471
ag5
(g139
S'z\xdc\x01f\x91|Y@'
p472
tp473
Rp474
ag5
(g139
S'\x13\xd0\x19\xa6z\x91Y@'
p475
tp476
Rp477
ag5
(g139
S'\x04E\xf9W\xb6\xa5Y@'
p478
tp479
Rp480
ag5
(g139
S'\x06\x8f\xablF\xb9Y@'
p481
tp482
Rp483
ag5
(g139
S'\xbf=\xbez(\xccY@'
p484
tp485
Rp486
ag5
(g139
S'3o\xe4\x8da\xdeY@'
p487
tp488
Rp489
ag5
(g139
S'p\r\xd3N\xed\xefY@'
p490
tp491
Rp492
ag5
(g139
S'\xaa\xe8\x05h\xd0\x00Z@'
p493
tp494
Rp495
ag5
(g139
S'\x80\xe3j%\x0b\x11Z@'
p496
tp497
Rp498
ag5
(g139
S'\xaa}\x96T\xa5 Z@'
p499
tp500
Rp501
ag5
(g139
S'L\x13g\xd3\x98/Z@'
p502
tp503
Rp504
ag5
(g139
S'\xd9I\xc2\xdf\xf1=Z@'
p505
tp506
Rp507
ag5
(g139
S'\x06\x02\xc9\x01\xaeKZ@'
p508
tp509
Rp510
ag5
(g139
S'\xe4\xef\xb8\xd1\xd7XZ@'
p511
tp512
Rp513
ag5
(g139
S'\xa7\xdb\x98HjeZ@'
p514
tp515
Rp516
asS'deltas[-1][0]'
p517
(lp518
I91
aI99
aI81
aI88
aI87
aI90
aI95
aI94
aI99
aI99
aI99
aI99
aI99
aI99
aI99
aI99
aI99
aI99
aI99
aI99
aI99
aI99
aI99
aI99
aI99
aI99
aI99
aI99
aI99
aI99
aI99
aI99
aI99
aI99
aI99
aI99
aI99
aI99
aI99
aI99
aI99
as.