(dp0
S'self.damping'
p1
(lp2
F0.66
aF0.43560000000000004
aF0.28749600000000003
aF0.18974736000000003
aF0.12523325760000004
aF0.08265395001600002
aF0.05455160701056002
aF0.03600406062696961
aF0.023762680013799945
aF0.015683368809107964
aF0.010351023414011257
aF0.00683167545324743
aF0.00683167545324743
aF0.004508905799143304
aF0.002975877827434581
aF0.0019640793661068233
aF0.0012962923816305036
aF0.0008555529718761324
aF0.0005646649614382474
aF0.0005646649614382474
aF0.0005646649614382474
aF0.000846997442157371
aF0.000846997442157371
aF0.0012704961632360565
aF0.0019057442448540847
aF0.002858616367281127
aF0.0042879245509216905
aF0.006431886826382536
aF0.009647830239573803
aF0.014471745359360706
aF0.02170761803904106
aF0.03256142705856159
aF0.02149054185865065
aF0.014183757626709429
aF0.009361280033628223
aF0.0061784448221946274
aF0.0040777735826484545
aF0.00269133056454798
aF0.001776278172601667
aF0.0011723435939171003
aF0.0007737467719852863
aF0.000510672869510289
aF0.0003370440938767907
aF0.0002224491019586819
aF0.00014681640729273006
aF9.689882881320185e-05
aF6.395322701671322e-05
aF4.220912983103073e-05
aF2.785802568848028e-05
aF1.8386296954396985e-05
aF1.2134955989902012e-05
aF8.009070953335329e-06
aF5.285986829201317e-06
aF3.4887513072728696e-06
aF2.302575862800094e-06
aF1.519700069448062e-06
aF1.003002045835721e-06
aF6.619813502515759e-07
aF4.369076911660401e-07
aF2.883590761695865e-07
aF1.9031699027192708e-07
aF1.2560921357947186e-07
aF8.290208096245144e-08
aF5.471537343521795e-08
aF3.611214646724385e-08
aF2.383401666838094e-08
aF1.5730451001131422e-08
aF1.038209766074674e-08
aF6.852184456092849e-09
aF4.5224417410212805e-09
aF2.984811549074045e-09
aF1.96997562238887e-09
aF1.3001839107766543e-09
aF8.581213811125919e-10
aF5.663601115343107e-10
aF3.737976736126451e-10
aF2.4670646458434576e-10
aF1.6282626662566822e-10
aF1.0746533597294104e-10
aF7.092712174214109e-11
aF4.681190034981312e-11
aF3.089585423087666e-11
aF2.0391263792378596e-11
aF1.3458234102969874e-11
aF8.882434507960116e-12
aF5.8624067752536775e-12
aF3.869188471667427e-12
aF2.553664391300502e-12
aF1.6854184982583313e-12
aF1.1123762088504987e-12
aF7.341682978413292e-13
aF4.845510765752773e-13
aF3.1980371053968306e-13
aF2.1107044895619082e-13
aF1.3930649631108596e-13
aF9.194228756531674e-14
aF6.068190979310906e-14
aF4.005006046345198e-14
aF2.643303990587831e-14
aF1.7445806337879686e-14
aF1.1514232183000593e-14
aF7.599393240780393e-15
aF5.01559953891506e-15
aF3.3102956956839394e-15
aF2.1847951591514002e-15
aF1.4419648050399242e-15
aF9.5169677132635e-16
aF6.28119869075391e-16
aF4.145591135897581e-16
asS'np.linalg.norm(delta)'
p3
(lp4
cnumpy.core.multiarray
scalar
p5
(cnumpy
dtype
p6
(S'f4'
p7
I0
I1
tp8
Rp9
(I3
S'<'
p10
NNNI-1
I-1
I0
tp11
bS'Y\xc7G?'
p12
tp13
Rp14
ag5
(g9
S'\xcf\x9f\xf8>'
p15
tp16
Rp17
ag5
(g9
S'/<\xf0>'
p18
tp19
Rp20
ag5
(g9
S'\xe3\xd2\x16?'
p21
tp22
Rp23
ag5
(g9
S'\xbb\xe38?'
p24
tp25
Rp26
ag5
(g9
S'\x11d@?'
p27
tp28
Rp29
ag5
(g9
S'\xaf\xea<?'
p30
tp31
Rp32
ag5
(g9
S'.\x0bG?'
p33
tp34
Rp35
ag5
(g9
S'V\x98o?'
p36
tp37
Rp38
ag5
(g9
S'}@\xc4?'
p39
tp40
Rp41
ag5
(g9
S'1\xe7\x11@'
p42
tp43
Rp44
ag5
(g9
S'S`9@'
p45
tp46
Rp47
ag5
(g9
S'\xc3?3@'
p48
tp49
Rp50
ag5
(g9
S'\x1c\xeb3@'
p51
tp52
Rp53
ag5
(g9
S'8\x0c&@'
p54
tp55
Rp56
ag5
(g9
S'\x1d\xf0\x13@'
p57
tp58
Rp59
ag5
(g9
S'\xdd\xb4\x04@'
p60
tp61
Rp62
ag5
(g9
S'|)\xf2?'
p63
tp64
Rp65
ag5
(g9
S'\x8f\xdc\xe0?'
p66
tp67
Rp68
ag5
(g9
S'\x9c\xdd\xd2?'
p69
tp70
Rp71
ag5
(g9
S'\x95\x8f\xc6?'
p72
tp73
Rp74
ag5
(g9
S'\xbdc\xbb?'
p75
tp76
Rp77
ag5
(g9
S'Ky\xb0?'
p78
tp79
Rp80
ag5
(g9
S'9G\xa7?'
p81
tp82
Rp83
ag5
(g9
S'lZ\x9b?'
p84
tp85
Rp86
ag5
(g9
S'\x9f\xca\x92?'
p87
tp88
Rp89
ag5
(g9
S'\x86\x8b\x88?'
p90
tp91
Rp92
ag5
(g9
S'_d\x80?'
p93
tp94
Rp95
ag5
(g9
S'\xcf9o?'
p96
tp97
Rp98
ag5
(g9
S'\xcc\xecZ?'
p99
tp100
Rp101
ag5
(g9
S'\x1b}B?'
p102
tp103
Rp104
ag5
(g9
S'P\xf7)?'
p105
tp106
Rp107
ag5
(g9
S'F\x14\x15?'
p108
tp109
Rp110
ag5
(g9
S'\xbbl\xf4>'
p111
tp112
Rp113
ag5
(g9
S'^\x1d\xd9>'
p114
tp115
Rp116
ag5
(g9
S'y\xcf\xcb>'
p117
tp118
Rp119
ag5
(g9
S'8\xf2\xbf>'
p120
tp121
Rp122
ag5
(g9
S'\x04H\xb5>'
p123
tp124
Rp125
ag5
(g9
S'\xfb\xb2\xab>'
p126
tp127
Rp128
ag5
(g9
S'\x9e\xca\xa2>'
p129
tp130
Rp131
ag5
(g9
S'\x8f\x7f\x9a>'
p132
tp133
Rp134
ag5
(g9
S'O\xb0\x92>'
p135
tp136
Rp137
ag5
(g9
S'{S\x8b>'
p138
tp139
Rp140
ag5
(g9
S'\xa5Z\x84>'
p141
tp142
Rp143
ag5
(g9
S'-~{>'
p144
tp145
Rp146
ag5
(g9
S'\xed\xf5n>'
p147
tp148
Rp149
ag5
(g9
S'\xf3\x0ec>'
p150
tp151
Rp152
ag5
(g9
S'J\xc2W>'
p153
tp154
Rp155
ag5
(g9
S'L\x05M>'
p156
tp157
Rp158
ag5
(g9
S'\xd5\xd3B>'
p159
tp160
Rp161
ag5
(g9
S'\xb0#9>'
p162
tp163
Rp164
ag5
(g9
S'\x16\xf1/>'
p165
tp166
Rp167
ag5
(g9
S"\x00/'>"
p168
tp169
Rp170
ag5
(g9
S'\x8c\xdd\x1e>'
p171
tp172
Rp173
ag5
(g9
S'\xeb\xf5\x16>'
p174
tp175
Rp176
ag5
(g9
S'$s\x0f>'
p177
tp178
Rp179
ag5
(g9
S'sO\x08>'
p180
tp181
Rp182
ag5
(g9
S'\x1e\x88\x01>'
p183
tp184
Rp185
ag5
(g9
S'y,\xf6='
p186
tp187
Rp188
ag5
(g9
S'N\xf0\xe9='
p189
tp190
Rp191
ag5
(g9
S'\xecL\xde='
p192
tp193
Rp194
ag5
(g9
S'\xb5G\xd3='
p195
tp196
Rp197
ag5
(g9
S'*\xc8\xc8='
p198
tp199
Rp200
ag5
(g9
S'\xc4\xd3\xbe='
p201
tp202
Rp203
ag5
(g9
S'\x88W\xb5='
p204
tp205
Rp206
ag5
(g9
S'jb\xac='
p207
tp208
Rp209
ag5
(g9
S';\xd4\xa3='
p210
tp211
Rp212
ag5
(g9
S'\xa2\xb8\x9b='
p213
tp214
Rp215
ag5
(g9
S'N\x01\x94='
p216
tp217
Rp218
ag5
(g9
S'\xe8\xb1\x8c='
p219
tp220
Rp221
ag5
(g9
S'C\xba\x85='
p222
tp223
Rp224
ag5
(g9
S'\xe9F~='
p225
tp226
Rp227
ag5
(g9
S'\xfa\xb7q='
p228
tp229
Rp230
ag5
(g9
S'\xab\xd5e='
p231
tp232
Rp233
ag5
(g9
S'>~Z='
p234
tp235
Rp236
ag5
(g9
S'\xcd\xddO='
p237
tp238
Rp239
ag5
(g9
S'r\xa1E='
p240
tp241
Rp242
ag5
(g9
S'\xb4\xf6;='
p243
tp244
Rp245
ag5
(g9
S'\xec\xc42='
p246
tp247
Rp248
ag5
(g9
S'\x07\x12*='
p249
tp250
Rp251
ag5
(g9
S'\x81\xc1!='
p252
tp253
Rp254
ag5
(g9
S'\xfd\xe6\x19='
p255
tp256
Rp257
ag5
(g9
S'\x16e\x12='
p258
tp259
Rp260
ag5
(g9
S'hw\x0b='
p261
tp262
Rp263
ag5
(g9
S'\xcd\xb0\x04='
p264
tp265
Rp266
ag5
(g9
S'*\x9a\xfc<'
p267
tp268
Rp269
ag5
(g9
S'\xeen\xf0<'
p270
tp271
Rp272
ag5
(g9
S',\xdd\xe4<'
p273
tp274
Rp275
ag5
(g9
S'o\xe5\xd9<'
p276
tp277
Rp278
ag5
(g9
S'\xf9\x90\xcf<'
p279
tp280
Rp281
ag5
(g9
S'\xd4\xa7\xc5<'
p282
tp283
Rp284
ag5
(g9
S'\xfaK\xbc<'
p285
tp286
Rp287
ag5
(g9
S'\xffr\xb3<'
p288
tp289
Rp290
ag5
(g9
S'\xaa\x18\xab<'
p291
tp292
Rp293
ag5
(g9
S'n\x19\xa3<'
p294
tp295
Rp296
ag5
(g9
S'\x9f\xdf\x9b<'
p297
tp298
Rp299
ag5
(g9
S'\x9e\x8e\x94<'
p300
tp301
Rp302
ag5
(g9
S'\xb4\xd0\x8d<'
p303
tp304
Rp305
ag5
(g9
S'\x94Q\x87<'
p306
tp307
Rp308
ag5
(g9
S'\xddb\x81<'
p309
tp310
Rp311
ag5
(g9
S'\xce\x05w<'
p312
tp313
Rp314
ag5
(g9
S' Hl<'
p315
tp316
Rp317
ag5
(g9
S'\xbe\xe5a<'
p318
tp319
Rp320
ag5
(g9
S'\x06ZX<'
p321
tp322
Rp323
ag5
(g9
S'\xa8\xb5N<'
p324
tp325
Rp326
ag5
(g9
S'w\xfdE<'
p327
tp328
Rp329
ag5
(g9
S'\x86F=<'
p330
tp331
Rp332
ag5
(g9
S'\x9a\xb25<'
p333
tp334
Rp335
ag5
(g9
S'\xc8\xf3-<'
p336
tp337
Rp338
asS'new_err'
p339
(lp340
g5
(g6
(S'f8'
p341
I0
I1
tp342
Rp343
(I3
S'<'
p344
NNNI-1
I-1
I0
tp345
bS'n\xdb\xb6m\xf5\xa0\x06@'
p346
tp347
Rp348
ag5
(g343
S'\x00\x00\x00\x000\xe9\x03@'
p349
tp350
Rp351
ag5
(g343
S'n\xdb\xb6m\x87\xef\x02@'
p352
tp353
Rp354
ag5
(g343
S'\x00\x00\x00\x80\xc5\xc7\x01@'
p355
tp356
Rp357
ag5
(g343
S'\xdb\xb6m\xdb_\x8d\x00@'
p358
tp359
Rp360
ag5
(g343
S'\x00\x00\x00\x00\xd3B\xff?'
p361
tp362
Rp363
ag5
(g343
S'n\xdb\xb6m}\x10\xfe?'
p364
tp365
Rp366
ag5
(g343
S'\xdb\xb6m\xdb\xd6#\xfd?'
p367
tp368
Rp369
ag5
(g343
S'n\xdb\xb6m\x10\x04\xfc?'
p370
tp371
Rp372
ag5
(g343
S'\xdb\xb6m\xdbn\x91\xf8?'
p373
tp374
Rp375
ag5
(g343
S'\xdb\xb6m\xdb\xbd\xab\xf2?'
p376
tp377
Rp378
ag5
(g343
S'I\x92$I.\x9b\xed?'
p379
tp380
Rp381
ag5
(g343
S'n\xdb\xb6m\xe7?\xe7?'
p382
tp383
Rp384
ag5
(g343
S'%I\x92$\xb5\x1b\xd5?'
p385
tp386
Rp387
ag5
(g343
S'\xdb\xb6m\xdb1\xe3\xb8?'
p388
tp389
Rp390
ag5
(g343
S'n\xdb\xb6m\xdb\xd3\x9c?'
p391
tp392
Rp393
ag5
(g343
S'%I\x92$\x8c\xf8\x84?'
p394
tp395
Rp396
ag5
(g343
S'\xdb\xb6m\xdbO\x98t?'
p397
tp398
Rp399
ag5
(g343
S'\xdb\xb6m\xdb&zh?'
p400
tp401
Rp402
ag5
(g343
S'\xdb\xb6m\xdb\xb59b?'
p403
tp404
Rp405
ag5
(g343
S'\x00\x00\x00\x00\xe3T[?'
p406
tp407
Rp408
ag5
(g343
S'I\x92$Ij\x97Y?'
p409
tp410
Rp411
ag5
(g343
S'\xb7m\xdb\xb63\x97W?'
p412
tp413
Rp414
ag5
(g343
S'\xdb\xb6m\xdb\xca\xdeV?'
p415
tp416
Rp417
ag5
(g343
S'\xdb\xb6m\xdb\xce[V?'
p418
tp419
Rp420
ag5
(g343
S'%I\x92$\xc9\xe0U?'
p421
tp422
Rp423
ag5
(g343
S'n\xdb\xb6m\xfc\x04U?'
p424
tp425
Rp426
ag5
(g343
S'\xdb\xb6m\xdb\x8e\xa8T?'
p427
tp428
Rp429
ag5
(g343
S'\xdb\xb6m\xdb\x9d\x7fT?'
p430
tp431
Rp432
ag5
(g343
S'\x92$I\x92\r]T?'
p433
tp434
Rp435
ag5
(g343
S'\x92$I\x92%FT?'
p436
tp437
Rp438
ag5
(g343
S'%I\x92$*2T?'
p439
tp440
Rp441
ag5
(g343
S'n\xdb\xb6m`\x1bT?'
p442
tp443
Rp444
ag5
(g343
S'n\xdb\xb6m)\xebS?'
p445
tp446
Rp447
ag5
(g343
S'n\xdb\xb6mI^S?'
p448
tp449
Rp450
ag5
(g343
S'%I\x92$\xda\x9aR?'
p451
tp452
Rp453
ag5
(g343
S'\x92$I\x12\x1b\xfcQ?'
p454
tp455
Rp456
ag5
(g343
S'n\xdb\xb6\xed\xd2RQ?'
p457
tp458
Rp459
ag5
(g343
S'\x92$I\x12G\xa8P?'
p460
tp461
Rp462
ag5
(g343
S'\xb7m\xdb\xb6\x04\tP?'
p463
tp464
Rp465
ag5
(g343
S'\x92$I\x92h\xd5N?'
p466
tp467
Rp468
ag5
(g343
S'%I\x92$&\xbaM?'
p469
tp470
Rp471
ag5
(g343
S'n\xdb\xb6m\x00\xa7L?'
p472
tp473
Rp474
ag5
(g343
S'\x92$I\x92\x1f\xbcK?'
p475
tp476
Rp477
ag5
(g343
S'I\x92$I\xb4\xc4J?'
p478
tp479
Rp480
ag5
(g343
S'I\x92$Ii\xf2I?'
p481
tp482
Rp483
ag5
(g343
S'n\xdb\xb6m\xc1\x1aI?'
p484
tp485
Rp486
ag5
(g343
S'\x00\x00\x00\x00\xe8`H?'
p487
tp488
Rp489
ag5
(g343
S'\x00\x00\x00\x00D\xa1G?'
p490
tp491
Rp492
ag5
(g343
S'n\xdb\xb6m\x9e\xf1F?'
p493
tp494
Rp495
ag5
(g343
S'%I\x92$-FF?'
p496
tp497
Rp498
ag5
(g343
S'I\x92$I\x10\xa4E?'
p499
tp500
Rp501
ag5
(g343
S'\x92$I\x92\x81\x11E?'
p502
tp503
Rp504
ag5
(g343
S'n\xdb\xb6m\xeb\x8bD?'
p505
tp506
Rp507
ag5
(g343
S'\x92$I\x92\x84\x15D?'
p508
tp509
Rp510
ag5
(g343
S'\x92$I\x92(\xa5C?'
p511
tp512
Rp513
ag5
(g343
S'%I\x92$\xda=C?'
p514
tp515
Rp516
ag5
(g343
S'I\x92$I\xc2\xdcB?'
p517
tp518
Rp519
ag5
(g343
S'\xdb\xb6m\xdb\xdf~B?'
p520
tp521
Rp522
ag5
(g343
S'\x00\x00\x00\x00\xbd$B?'
p523
tp524
Rp525
ag5
(g343
S'\xb7m\xdb\xb6\x8f\xccA?'
p526
tp527
Rp528
ag5
(g343
S'\x92$I\x92\xfdwA?'
p529
tp530
Rp531
ag5
(g343
S'\x92$I\x12F\x1dA?'
p532
tp533
Rp534
ag5
(g343
S'I\x92$\xc9=\xcb@?'
p535
tp536
Rp537
ag5
(g343
S'\x00\x00\x00\x00\xc7x@?'
p538
tp539
Rp540
ag5
(g343
S'I\x92$I\xe0)@?'
p541
tp542
Rp543
ag5
(g343
S'\xb7m\xdb\xb6\xe9\xb1??'
p544
tp545
Rp546
ag5
(g343
S'\xb7m\xdb\xb6\xbb ??'
p547
tp548
Rp549
ag5
(g343
S'\x92$I\x92\x92\x8f>?'
p550
tp551
Rp552
ag5
(g343
S'%I\x92$\xd3\x02>?'
p553
tp554
Rp555
ag5
(g343
S'I\x92$I\xb9w=?'
p556
tp557
Rp558
ag5
(g343
S'I\x92$I\xe8\xf3<?'
p559
tp560
Rp561
ag5
(g343
S'I\x92$Iip<?'
p562
tp563
Rp564
ag5
(g343
S'\x00\x00\x00\x00\xcd\xf2;?'
p565
tp566
Rp567
ag5
(g343
S'\x00\x00\x00\x007v;?'
p568
tp569
Rp570
ag5
(g343
S'\x00\x00\x00\x00<\xfb:?'
p571
tp572
Rp573
ag5
(g343
S'n\xdb\xb6mY}:?'
p574
tp575
Rp576
ag5
(g343
S'\x92$I\x92i\x08:?'
p577
tp578
Rp579
ag5
(g343
S'\xdb\xb6m\xdb\xe4\x949?'
p580
tp581
Rp582
ag5
(g343
S'%I\x92${$9?'
p583
tp584
Rp585
ag5
(g343
S'n\xdb\xb6m\x0f\xb68?'
p586
tp587
Rp588
ag5
(g343
S'\xdb\xb6m\xdbmL8?'
p589
tp590
Rp591
ag5
(g343
S'I\x92$I\xaf\xe47?'
p592
tp593
Rp594
ag5
(g343
S'\x92$I\x92j~7?'
p595
tp596
Rp597
ag5
(g343
S'n\xdb\xb6m\xa3\x157?'
p598
tp599
Rp600
ag5
(g343
S'\x00\x00\x00\x00\xa5\xb36?'
p601
tp602
Rp603
ag5
(g343
S'\x92$I\x92,T6?'
p604
tp605
Rp606
ag5
(g343
S'\xdb\xb6m\xdb\xfe\xf75?'
p607
tp608
Rp609
ag5
(g343
S'\x00\x00\x00\x00\xba\x9e5?'
p610
tp611
Rp612
ag5
(g343
S'\xb7m\xdb\xb6*G5?'
p613
tp614
Rp615
ag5
(g343
S'I\x92$I`\xf14?'
p616
tp617
Rp618
ag5
(g343
S'\xb7m\xdb\xb6\xec\x9e4?'
p619
tp620
Rp621
ag5
(g343
S'\xdb\xb6m\xdbhM4?'
p622
tp623
Rp624
ag5
(g343
S'I\x92$I\x01\xfd3?'
p625
tp626
Rp627
ag5
(g343
S'\x92$I\x92F\xae3?'
p628
tp629
Rp630
ag5
(g343
S'\x00\x00\x00\x00o`3?'
p631
tp632
Rp633
ag5
(g343
S'\x92$I\x92\xd2\x113?'
p634
tp635
Rp636
ag5
(g343
S'%I\x92$\xb7\xc72?'
p637
tp638
Rp639
ag5
(g343
S'\xb7m\xdb\xb6\xc0~2?'
p640
tp641
Rp642
ag5
(g343
S'\x92$I\x12\xb972?'
p643
tp644
Rp645
ag5
(g343
S'%I\x92$(\xf11?'
p646
tp647
Rp648
ag5
(g343
S'\x92$I\x92y\xad1?'
p649
tp650
Rp651
ag5
(g343
S'\x00\x00\x00\x00zj1?'
p652
tp653
Rp654
ag5
(g343
S'n\xdb\xb6m\x85)1?'
p655
tp656
Rp657
ag5
(g343
S'\xb7m\xdb\xb6\xee\xe90?'
p658
tp659
Rp660
ag5
(g343
S'%I\x92$\xdf\xac0?'
p661
tp662
Rp663
ag5
(g343
S'\xb7m\xdb\xb6\x8fq0?'
p664
tp665
Rp666
ag5
(g343
S'\x00\x00\x00\x80h80?'
p667
tp668
Rp669
ag5
(g343
S'%I\x92$\xf1\xfe/?'
p670
tp671
Rp672
asS'l_rate'
p673
(lp674
F1.0
aF1.0
aF1.0
aF1.0
aF1.0
aF1.0
aF1.0
aF1.0
aF1.0
aF1.0
aF1.0
aF1.0
aF1.0
aF1.0
aF1.0
aF1.0
aF1.0
aF1.0
aF1.0
aF1.0
aF1.0
aF0.8
aF1.0
aF0.6400000000000001
aF0.8
aF0.8
aF0.8
aF0.6400000000000001
aF0.6400000000000001
aF0.5120000000000001
aF0.6400000000000001
aF0.6400000000000001
aF0.6400000000000001
aF1.0
aF1.0
aF1.0
aF1.0
aF1.0
aF1.0
aF1.0
aF1.0
aF1.0
aF1.0
aF1.0
aF1.0
aF1.0
aF1.0
aF1.0
aF1.0
aF1.0
aF1.0
aF1.0
aF1.0
aF1.0
aF1.0
aF1.0
aF1.0
aF1.0
aF1.0
aF1.0
aF1.0
aF1.0
aF1.0
aF1.0
aF1.0
aF1.0
aF1.0
aF1.0
aF1.0
aF1.0
aF1.0
aF1.0
aF1.0
aF1.0
aF1.0
aF1.0
aF1.0
aF1.0
aF1.0
aF1.0
aF1.0
aF1.0
aF1.0
aF1.0
aF1.0
aF1.0
aF1.0
aF1.0
aF1.0
aF1.0
aF1.0
aF1.0
aF1.0
aF1.0
aF1.0
aF1.0
aF1.0
aF1.0
aF1.0
aF1.0
aF1.0
aF1.0
aF1.0
aF1.0
aF1.0
aF1.0
aF1.0
aF1.0
aF1.0
asS'test_errs[-1]'
p675
(lp676
g5
(g343
S'n\xdb\xb6m\xf5\xa0\x06@'
p677
tp678
Rp679
ag5
(g343
S'\x00\x00\x00\x000\xe9\x03@'
p680
tp681
Rp682
ag5
(g343
S'n\xdb\xb6m\x87\xef\x02@'
p683
tp684
Rp685
ag5
(g343
S'\x00\x00\x00\x80\xc5\xc7\x01@'
p686
tp687
Rp688
ag5
(g343
S'\xdb\xb6m\xdb_\x8d\x00@'
p689
tp690
Rp691
ag5
(g343
S'\x00\x00\x00\x00\xd3B\xff?'
p692
tp693
Rp694
ag5
(g343
S'n\xdb\xb6m}\x10\xfe?'
p695
tp696
Rp697
ag5
(g343
S'\xdb\xb6m\xdb\xd6#\xfd?'
p698
tp699
Rp700
ag5
(g343
S'n\xdb\xb6m\x10\x04\xfc?'
p701
tp702
Rp703
ag5
(g343
S'\xdb\xb6m\xdbn\x91\xf8?'
p704
tp705
Rp706
ag5
(g343
S'\xdb\xb6m\xdb\xbd\xab\xf2?'
p707
tp708
Rp709
ag5
(g343
S'I\x92$I.\x9b\xed?'
p710
tp711
Rp712
ag5
(g343
S'n\xdb\xb6m\xe7?\xe7?'
p713
tp714
Rp715
ag5
(g343
S'%I\x92$\xb5\x1b\xd5?'
p716
tp717
Rp718
ag5
(g343
S'\xdb\xb6m\xdb1\xe3\xb8?'
p719
tp720
Rp721
ag5
(g343
S'n\xdb\xb6m\xdb\xd3\x9c?'
p722
tp723
Rp724
ag5
(g343
S'%I\x92$\x8c\xf8\x84?'
p725
tp726
Rp727
ag5
(g343
S'\xdb\xb6m\xdbO\x98t?'
p728
tp729
Rp730
ag5
(g343
S'\xdb\xb6m\xdb&zh?'
p731
tp732
Rp733
ag5
(g343
S'\xdb\xb6m\xdb\xb59b?'
p734
tp735
Rp736
ag5
(g343
S'\x00\x00\x00\x00\xe3T[?'
p737
tp738
Rp739
ag5
(g343
S'I\x92$Ij\x97Y?'
p740
tp741
Rp742
ag5
(g343
S'\xb7m\xdb\xb63\x97W?'
p743
tp744
Rp745
ag5
(g343
S'\xdb\xb6m\xdb\xca\xdeV?'
p746
tp747
Rp748
ag5
(g343
S'\xdb\xb6m\xdb\xce[V?'
p749
tp750
Rp751
ag5
(g343
S'%I\x92$\xc9\xe0U?'
p752
tp753
Rp754
ag5
(g343
S'n\xdb\xb6m\xfc\x04U?'
p755
tp756
Rp757
ag5
(g343
S'\xdb\xb6m\xdb\x8e\xa8T?'
p758
tp759
Rp760
ag5
(g343
S'\xdb\xb6m\xdb\x9d\x7fT?'
p761
tp762
Rp763
ag5
(g343
S'\x92$I\x92\r]T?'
p764
tp765
Rp766
ag5
(g343
S'\x92$I\x92%FT?'
p767
tp768
Rp769
ag5
(g343
S'%I\x92$*2T?'
p770
tp771
Rp772
ag5
(g343
S'n\xdb\xb6m`\x1bT?'
p773
tp774
Rp775
ag5
(g343
S'n\xdb\xb6m)\xebS?'
p776
tp777
Rp778
ag5
(g343
S'n\xdb\xb6mI^S?'
p779
tp780
Rp781
ag5
(g343
S'%I\x92$\xda\x9aR?'
p782
tp783
Rp784
ag5
(g343
S'\x92$I\x12\x1b\xfcQ?'
p785
tp786
Rp787
ag5
(g343
S'n\xdb\xb6\xed\xd2RQ?'
p788
tp789
Rp790
ag5
(g343
S'\x92$I\x12G\xa8P?'
p791
tp792
Rp793
ag5
(g343
S'\xb7m\xdb\xb6\x04\tP?'
p794
tp795
Rp796
ag5
(g343
S'\x92$I\x92h\xd5N?'
p797
tp798
Rp799
ag5
(g343
S'%I\x92$&\xbaM?'
p800
tp801
Rp802
ag5
(g343
S'n\xdb\xb6m\x00\xa7L?'
p803
tp804
Rp805
ag5
(g343
S'\x92$I\x92\x1f\xbcK?'
p806
tp807
Rp808
ag5
(g343
S'I\x92$I\xb4\xc4J?'
p809
tp810
Rp811
ag5
(g343
S'I\x92$Ii\xf2I?'
p812
tp813
Rp814
ag5
(g343
S'n\xdb\xb6m\xc1\x1aI?'
p815
tp816
Rp817
ag5
(g343
S'\x00\x00\x00\x00\xe8`H?'
p818
tp819
Rp820
ag5
(g343
S'\x00\x00\x00\x00D\xa1G?'
p821
tp822
Rp823
ag5
(g343
S'n\xdb\xb6m\x9e\xf1F?'
p824
tp825
Rp826
ag5
(g343
S'%I\x92$-FF?'
p827
tp828
Rp829
ag5
(g343
S'I\x92$I\x10\xa4E?'
p830
tp831
Rp832
ag5
(g343
S'\x92$I\x92\x81\x11E?'
p833
tp834
Rp835
ag5
(g343
S'n\xdb\xb6m\xeb\x8bD?'
p836
tp837
Rp838
ag5
(g343
S'\x92$I\x92\x84\x15D?'
p839
tp840
Rp841
ag5
(g343
S'\x92$I\x92(\xa5C?'
p842
tp843
Rp844
ag5
(g343
S'%I\x92$\xda=C?'
p845
tp846
Rp847
ag5
(g343
S'I\x92$I\xc2\xdcB?'
p848
tp849
Rp850
ag5
(g343
S'\xdb\xb6m\xdb\xdf~B?'
p851
tp852
Rp853
ag5
(g343
S'\x00\x00\x00\x00\xbd$B?'
p854
tp855
Rp856
ag5
(g343
S'\xb7m\xdb\xb6\x8f\xccA?'
p857
tp858
Rp859
ag5
(g343
S'\x92$I\x92\xfdwA?'
p860
tp861
Rp862
ag5
(g343
S'\x92$I\x12F\x1dA?'
p863
tp864
Rp865
ag5
(g343
S'I\x92$\xc9=\xcb@?'
p866
tp867
Rp868
ag5
(g343
S'\x00\x00\x00\x00\xc7x@?'
p869
tp870
Rp871
ag5
(g343
S'I\x92$I\xe0)@?'
p872
tp873
Rp874
ag5
(g343
S'\xb7m\xdb\xb6\xe9\xb1??'
p875
tp876
Rp877
ag5
(g343
S'\xb7m\xdb\xb6\xbb ??'
p878
tp879
Rp880
ag5
(g343
S'\x92$I\x92\x92\x8f>?'
p881
tp882
Rp883
ag5
(g343
S'%I\x92$\xd3\x02>?'
p884
tp885
Rp886
ag5
(g343
S'I\x92$I\xb9w=?'
p887
tp888
Rp889
ag5
(g343
S'I\x92$I\xe8\xf3<?'
p890
tp891
Rp892
ag5
(g343
S'I\x92$Iip<?'
p893
tp894
Rp895
ag5
(g343
S'\x00\x00\x00\x00\xcd\xf2;?'
p896
tp897
Rp898
ag5
(g343
S'\x00\x00\x00\x007v;?'
p899
tp900
Rp901
ag5
(g343
S'\x00\x00\x00\x00<\xfb:?'
p902
tp903
Rp904
ag5
(g343
S'n\xdb\xb6mY}:?'
p905
tp906
Rp907
ag5
(g343
S'\x92$I\x92i\x08:?'
p908
tp909
Rp910
ag5
(g343
S'\xdb\xb6m\xdb\xe4\x949?'
p911
tp912
Rp913
ag5
(g343
S'%I\x92${$9?'
p914
tp915
Rp916
ag5
(g343
S'n\xdb\xb6m\x0f\xb68?'
p917
tp918
Rp919
ag5
(g343
S'\xdb\xb6m\xdbmL8?'
p920
tp921
Rp922
ag5
(g343
S'I\x92$I\xaf\xe47?'
p923
tp924
Rp925
ag5
(g343
S'\x92$I\x92j~7?'
p926
tp927
Rp928
ag5
(g343
S'n\xdb\xb6m\xa3\x157?'
p929
tp930
Rp931
ag5
(g343
S'\x00\x00\x00\x00\xa5\xb36?'
p932
tp933
Rp934
ag5
(g343
S'\x92$I\x92,T6?'
p935
tp936
Rp937
ag5
(g343
S'\xdb\xb6m\xdb\xfe\xf75?'
p938
tp939
Rp940
ag5
(g343
S'\x00\x00\x00\x00\xba\x9e5?'
p941
tp942
Rp943
ag5
(g343
S'\xb7m\xdb\xb6*G5?'
p944
tp945
Rp946
ag5
(g343
S'I\x92$I`\xf14?'
p947
tp948
Rp949
ag5
(g343
S'\xb7m\xdb\xb6\xec\x9e4?'
p950
tp951
Rp952
ag5
(g343
S'\xdb\xb6m\xdbhM4?'
p953
tp954
Rp955
ag5
(g343
S'I\x92$I\x01\xfd3?'
p956
tp957
Rp958
ag5
(g343
S'\x92$I\x92F\xae3?'
p959
tp960
Rp961
ag5
(g343
S'\x00\x00\x00\x00o`3?'
p962
tp963
Rp964
ag5
(g343
S'\x92$I\x92\xd2\x113?'
p965
tp966
Rp967
ag5
(g343
S'%I\x92$\xb7\xc72?'
p968
tp969
Rp970
ag5
(g343
S'\xb7m\xdb\xb6\xc0~2?'
p971
tp972
Rp973
ag5
(g343
S'\x92$I\x12\xb972?'
p974
tp975
Rp976
ag5
(g343
S'%I\x92$(\xf11?'
p977
tp978
Rp979
ag5
(g343
S'\x92$I\x92y\xad1?'
p980
tp981
Rp982
ag5
(g343
S'\x00\x00\x00\x00zj1?'
p983
tp984
Rp985
ag5
(g343
S'n\xdb\xb6m\x85)1?'
p986
tp987
Rp988
ag5
(g343
S'\xb7m\xdb\xb6\xee\xe90?'
p989
tp990
Rp991
ag5
(g343
S'%I\x92$\xdf\xac0?'
p992
tp993
Rp994
ag5
(g343
S'\xb7m\xdb\xb6\x8fq0?'
p995
tp996
Rp997
ag5
(g343
S'\x00\x00\x00\x80h80?'
p998
tp999
Rp1000
ag5
(g343
S'%I\x92$\xf1\xfe/?'
p1001
tp1002
Rp1003
asS'np.linalg.norm(self.W)'
p1004
(lp1005
g5
(g343
S'IR\xee\x94\x89\xb5W@'
p1006
tp1007
Rp1008
ag5
(g343
S'\xc1\xc9d\xe1\xa9\xb5W@'
p1009
tp1010
Rp1011
ag5
(g343
S'\x99\x1b\xf8\xa8\xed\xb5W@'
p1012
tp1013
Rp1014
ag5
(g343
S'h\xdb\x9a}r\xb6W@'
p1015
tp1016
Rp1017
ag5
(g343
S'\xba\xb4\x88\x08R\xb7W@'
p1018
tp1019
Rp1020
ag5
(g343
S't\xbc\xa3\xfep\xb8W@'
p1021
tp1022
Rp1023
ag5
(g343
S'\x02\x9f\xfbw\xd2\xb9W@'
p1024
tp1025
Rp1026
ag5
(g343
S'2\x1b\xe6Y\xdd\xbbW@'
p1027
tp1028
Rp1029
ag5
(g343
S'm\x19\xca\xc6S\xbfW@'
p1030
tp1031
Rp1032
ag5
(g343
S'\x9f\xb4\x94\x00\x04\xc6W@'
p1033
tp1034
Rp1035
ag5
(g343
S'\xe8w\x1bg\x86\xd0W@'
p1036
tp1037
Rp1038
ag5
(g343
S'N\xb4;\x06\x00\xe0W@'
p1039
tp1040
Rp1041
ag5
(g343
S'-\x8dJ\xe8N\xf2W@'
p1042
tp1043
Rp1044
ag5
(g343
S'\xcbW=\x0b\x81\x03X@'
p1045
tp1046
Rp1047
ag5
(g343
S'QJ;\r\xf7\x17X@'
p1048
tp1049
Rp1050
ag5
(g343
S'\xaf\xefD\xd1v.X@'
p1051
tp1052
Rp1053
ag5
(g343
S'\xe94\xec\xdf4EX@'
p1054
tp1055
Rp1056
ag5
(g343
S'\xba\xcf\xa3\xef\xf8[X@'
p1057
tp1058
Rp1059
ag5
(g343
S'\xa4J\xe2\x96\xe4rX@'
p1060
tp1061
Rp1062
ag5
(g343
S'\xdc\x19\xcd5\x08\x8aX@'
p1063
tp1064
Rp1065
ag5
(g343
S'\xaf\xce\xaa\x88Q\xa1X@'
p1066
tp1067
Rp1068
ag5
(g343
S'\xa0\xee_\xab\xe0\xb3X@'
p1069
tp1070
Rp1071
ag5
(g343
S'\x84\x99F\x04\xc9\xcaX@'
p1072
tp1073
Rp1074
ag5
(g343
S'#\x8f\x90\r>\xd9X@'
p1075
tp1076
Rp1077
ag5
(g343
S'\xcc\xa0O-\x89\xeaX@'
p1078
tp1079
Rp1080
ag5
(g343
S'J\xa9\xc9Yc\xfbX@'
p1081
tp1082
Rp1083
ag5
(g343
S'\x1c#\xaa\xa9\x80\x0bY@'
p1084
tp1085
Rp1086
ag5
(g343
S'\x0c1;\xc5\xe7\x17Y@'
p1087
tp1088
Rp1089
ag5
(g343
S'\x08\xa8\x7f\xb9\xab#Y@'
p1090
tp1091
Rp1092
ag5
(g343
S'\t\xc1!Vh,Y@'
p1093
tp1094
Rp1095
ag5
(g343
S'\x94M:J76Y@'
p1096
tp1097
Rp1098
ag5
(g343
S'y\xe5\x14\xdd\xdd>Y@'
p1099
tp1100
Rp1101
ag5
(g343
S'\xf9\x0f\x1a\xaf\x83FY@'
p1102
tp1103
Rp1104
ag5
(g343
S'\xe2\xf3\xf7<\\PY@'
p1105
tp1106
Rp1107
ag5
(g343
S'&\x98mM,YY@'
p1108
tp1109
Rp1110
ag5
(g343
S'\xdek\xe1\x8d\x87aY@'
p1111
tp1112
Rp1113
ag5
(g343
S'l{3exiY@'
p1114
tp1115
Rp1116
ag5
(g343
S'\x918FK\x08qY@'
p1117
tp1118
Rp1119
ag5
(g343
S'\x83\x02\xc3A@xY@'
p1120
tp1121
Rp1122
ag5
(g343
S"R\xa3\x02'%\x7fY@"
p1123
tp1124
Rp1125
ag5
(g343
S'+\x0f\xd6\x83\xbb\x85Y@'
p1126
tp1127
Rp1128
ag5
(g343
S'\x83h\x1e\xf6\x06\x8cY@'
p1129
tp1130
Rp1131
ag5
(g343
S'\x17@\xab\xbe\n\x92Y@'
p1132
tp1133
Rp1134
ag5
(g343
S'x\xe0m\xa0\xc9\x97Y@'
p1135
tp1136
Rp1137
ag5
(g343
S'{\xd8\xe0SF\x9dY@'
p1138
tp1139
Rp1140
ag5
(g343
S'?`W\xa2\x83\xa2Y@'
p1141
tp1142
Rp1143
ag5
(g343
S'n\x88L\xea\x83\xa7Y@'
p1144
tp1145
Rp1146
ag5
(g343
S'\xdc\x0e\xa4\xc7I\xacY@'
p1147
tp1148
Rp1149
ag5
(g343
S'p\xe8E\x84\xd7\xb0Y@'
p1150
tp1151
Rp1152
ag5
(g343
S'\xbf@/`/\xb5Y@'
p1153
tp1154
Rp1155
ag5
(g343
S'\xaf\xafi\xb5S\xb9Y@'
p1156
tp1157
Rp1158
ag5
(g343
S'\xfa\x1f,\x7fF\xbdY@'
p1159
tp1160
Rp1161
ag5
(g343
S'N\x04\x1e-\n\xc1Y@'
p1162
tp1163
Rp1164
ag5
(g343
S'\xdb_\xab\x8d\xa0\xc4Y@'
p1165
tp1166
Rp1167
ag5
(g343
S'\xfd_\xbf\xc7\x0b\xc8Y@'
p1168
tp1169
Rp1170
ag5
(g343
S'\x02f\xfd\x87M\xcbY@'
p1171
tp1172
Rp1173
ag5
(g343
S'n\x97\xd5\xdeg\xceY@'
p1174
tp1175
Rp1176
ag5
(g343
S'Ov\xf6H\\\xd1Y@'
p1177
tp1178
Rp1179
ag5
(g343
S'\xc42\xe7\xbe,\xd4Y@'
p1180
tp1181
Rp1182
ag5
(g343
S'+\xa7\xf7\x98\xda\xd6Y@'
p1183
tp1184
Rp1185
ag5
(g343
S"3\x05'\xb2g\xd9Y@"
p1186
tp1187
Rp1188
ag5
(g343
S'\xcf\xf0\xbb1\xd5\xdbY@'
p1189
tp1190
Rp1191
ag5
(g343
S'r\xd5#\xde$\xdeY@'
p1192
tp1193
Rp1194
ag5
(g343
S'\x92\xd0\x98\xd6W\xe0Y@'
p1195
tp1196
Rp1197
ag5
(g343
S'<\xce_\xb2o\xe2Y@'
p1198
tp1199
Rp1200
ag5
(g343
S'E-\xb6jm\xe4Y@'
p1201
tp1202
Rp1203
ag5
(g343
S'z\x896xR\xe6Y@'
p1204
tp1205
Rp1206
ag5
(g343
S'I\x8e\x9e\xd7\x1f\xe8Y@'
p1207
tp1208
Rp1209
ag5
(g343
S'\rx\xa0\xc5\xd6\xe9Y@'
p1210
tp1211
Rp1212
ag5
(g343
S'\xb6b\xfb3x\xebY@'
p1213
tp1214
Rp1215
ag5
(g343
S'\x8f{\xd2?\x05\xedY@'
p1216
tp1217
Rp1218
ag5
(g343
S'\xf5\xec\xec\xc8~\xeeY@'
p1219
tp1220
Rp1221
ag5
(g343
S'\x17\x96\xb7\xd0\xe5\xefY@'
p1222
tp1223
Rp1224
ag5
(g343
S'{\x97\xdb$;\xf1Y@'
p1225
tp1226
Rp1227
ag5
(g343
S'\xad\xbb\xe3\xac\x7f\xf2Y@'
p1228
tp1229
Rp1230
ag5
(g343
S'\x8c\xa59\x15\xb4\xf3Y@'
p1231
tp1232
Rp1233
ag5
(g343
S'q\x80\xbeJ\xd9\xf4Y@'
p1234
tp1235
Rp1236
ag5
(g343
S'|[\x01\xf6\xef\xf5Y@'
p1237
tp1238
Rp1239
ag5
(g343
S'\x9e\x1a(\xcb\xf8\xf6Y@'
p1240
tp1241
Rp1242
ag5
(g343
S']\x9f\xb9p\xf4\xf7Y@'
p1243
tp1244
Rp1245
ag5
(g343
S'is#\x91\xe3\xf8Y@'
p1246
tp1247
Rp1248
ag5
(g343
S'B\xb8\xb4\xc2\xc6\xf9Y@'
p1249
tp1250
Rp1251
ag5
(g343
S'\xcab\xbf\x9e\x9e\xfaY@'
p1252
tp1253
Rp1254
ag5
(g343
S'`\x84\xe2\x92k\xfbY@'
p1255
tp1256
Rp1257
ag5
(g343
S'\x08{9E.\xfcY@'
p1258
tp1259
Rp1260
ag5
(g343
S'\xb3\xdd\x996\xe7\xfcY@'
p1261
tp1262
Rp1263
ag5
(g343
S'\xc1\xd4%\xdd\x96\xfdY@'
p1264
tp1265
Rp1266
ag5
(g343
S'.\x84\x1f\xb5=\xfeY@'
p1267
tp1268
Rp1269
ag5
(g343
S'\xf7q1%\xdc\xfeY@'
p1270
tp1271
Rp1272
ag5
(g343
S'\xa0s\xc7\x97r\xffY@'
p1273
tp1274
Rp1275
ag5
(g343
S'\xab,Zs\x01\x00Z@'
p1276
tp1277
Rp1278
ag5
(g343
S'\xf6\xde\x1a\x1b\x89\x00Z@'
p1279
tp1280
Rp1281
ag5
(g343
S'\x88\xca\x8d\xe1\t\x01Z@'
p1282
tp1283
Rp1284
ag5
(g343
S'\xd5\x11I"\x84\x01Z@'
p1285
tp1286
Rp1287
ag5
(g343
S't\x99\xfa.\xf8\x01Z@'
p1288
tp1289
Rp1290
ag5
(g343
S'\xb7\xc1;Hf\x02Z@'
p1291
tp1292
Rp1293
ag5
(g343
S'\\\x9e\xca\xce\xce\x02Z@'
p1294
tp1295
Rp1296
ag5
(g343
S'Wg\x9f\x052\x03Z@'
p1297
tp1298
Rp1299
ag5
(g343
S'\x11aS.\x90\x03Z@'
p1300
tp1301
Rp1302
ag5
(g343
S'=d\x85\x86\xe9\x03Z@'
p1303
tp1304
Rp1305
ag5
(g343
S'<\x95^O>\x04Z@'
p1306
tp1307
Rp1308
ag5
(g343
S'\x97\x05\x85\xc3\x8e\x04Z@'
p1309
tp1310
Rp1311
ag5
(g343
S'\x8d\xae\xa6\x17\xdb\x04Z@'
p1312
tp1313
Rp1314
ag5
(g343
S'\x0fW\xdc\x82#\x05Z@'
p1315
tp1316
Rp1317
ag5
(g343
S'[\x89\xe48h\x05Z@'
p1318
tp1319
Rp1320
ag5
(g343
S'\xb0\x9b.k\xa9\x05Z@'
p1321
tp1322
Rp1323
ag5
(g343
S'\x9d\xaf\x93H\xe7\x05Z@'
p1324
tp1325
Rp1326
ag5
(g343
S'\x8ar\xed\xf5!\x06Z@'
p1327
tp1328
Rp1329
ag5
(g343
S'3\xf1\xb2\x9eY\x06Z@'
p1330
tp1331
Rp1332
asS'deltas[-1][0]'
p1333
(lp1334
I81
aI92
aI88
aI85
aI85
aI86
aI92
aI92
aI99
aI99
aI99
aI99
aI99
aI99
aI99
aI99
aI99
aI99
aI99
aI99
aI99
aI99
aI99
aI99
aI99
aI99
aI99
aI99
aI99
aI99
aI99
aI99
aI99
aI99
aI99
aI99
aI99
aI99
aI99
aI99
aI99
aI99
aI99
aI99
aI99
aI99
aI99
aI99
aI99
aI99
aI99
aI99
aI99
aI99
aI99
aI99
aI99
aI99
aI99
aI99
aI99
aI99
aI99
aI99
aI99
aI99
aI99
aI99
aI99
aI99
aI99
aI99
aI99
aI99
aI99
aI99
aI99
aI99
aI99
aI99
aI99
aI99
aI99
aI99
aI99
aI99
aI99
aI99
aI99
aI99
aI99
aI99
aI99
aI99
aI99
aI99
aI99
aI99
aI99
aI99
aI99
aI99
aI99
aI99
aI99
aI99
aI99
aI99
aI99
as.