(dp0
S'self.damping'
p1
(lp2
F0.66
aF0.43560000000000004
aF0.28749600000000003
aF0.18974736000000003
aF0.12523325760000004
aF0.08265395001600002
aF0.05455160701056002
aF0.03600406062696961
aF0.023762680013799945
aF0.015683368809107964
aF0.010351023414011257
aF0.00683167545324743
aF0.004508905799143304
aF0.002975877827434581
aF0.002975877827434581
aF0.0019640793661068233
aF0.0012962923816305036
aF0.0008555529718761324
aF0.0005646649614382474
aF0.0003726788745492433
aF0.0002459680572025006
aF0.0001623389177536504
aF0.0001623389177536504
aF0.0001623389177536504
aF0.0001623389177536504
aF0.0001623389177536504
aF0.0001623389177536504
aF0.0001623389177536504
aF0.00010714368571740927
aF7.071483257349012e-05
aF4.667178949850348e-05
aF3.08033810690123e-05
aF2.033023150554812e-05
aF1.341795279366176e-05
aF8.855848843816762e-06
aF5.844860236919063e-06
aF3.857607756366581e-06
aF2.546021119201944e-06
aF1.6803739386732831e-06
aF1.1090467995243669e-06
aF7.319708876860822e-07
aF4.831007858728143e-07
aF3.1884651867605744e-07
aF2.1043870232619792e-07
aF1.3888954353529063e-07
aF9.166709873329182e-08
aF6.05002851639726e-08
aF3.993018820822192e-08
aF2.635392421742647e-08
aF1.739358998350147e-08
aF1.1479769389110971e-08
aF7.576647796813241e-09
aF5.00058754589674e-09
aF3.3003877802918484e-09
aF2.17825593499262e-09
aF1.4376489170951293e-09
aF9.488482852827853e-10
aF6.262398682866384e-10
aF4.133183130691814e-10
aF2.727900866256597e-10
aF1.8004145717293543e-10
aF1.1882736173413739e-10
aF7.842605874453068e-11
aF5.176119877139025e-11
aF3.4162391189117566e-11
aF2.2547178184817593e-11
aF1.4881137601979613e-11
aF9.821550817306546e-12
aF6.48222353942232e-12
aF4.278267536018732e-12
aF2.823656573772363e-12
aF1.86361333868976e-12
aF1.2299848035352416e-12
aF8.117899703332595e-13
aF5.357813804199513e-13
aF3.5361571107716787e-13
aF2.333863693109308e-13
aF1.5403500374521432e-13
aF1.0166310247184145e-13
aF6.709764763141536e-14
aF4.4284447436734144e-14
aF2.9227735308244536e-14
aF1.9290305303441394e-14
aF1.2731601500271321e-14
aF8.402856990179072e-15
aF5.545885613518188e-15
aF3.660284504922004e-15
aF2.4157877732485227e-15
aF1.594419930344025e-15
aF1.0523171540270565e-15
aF6.945293216578573e-16
aF4.583893522941859e-16
aF3.025369725141627e-16
aF1.996744018593474e-16
aF1.317851052271693e-16
aF8.697816944993173e-17
aF5.740559183695495e-17
aF3.788769061239027e-17
aF2.5005875804177578e-17
aF1.6503878030757202e-17
aF1.0892559500299754e-17
aF7.189089270197838e-18
aF4.744798918330573e-18
aF3.1315672860981785e-18
aF2.066834408824798e-18
aF1.3641107098243667e-18
aF9.00313068484082e-19
aF5.942066251994941e-19
aF3.9217637263166613e-19
aF2.5883640593689966e-19
aF1.7083202791835377e-19
aF1.127491384261135e-19
aF7.441443136123491e-20
aF4.911352469841504e-20
asS'np.linalg.norm(delta)'
p3
(lp4
cnumpy.core.multiarray
scalar
p5
(cnumpy
dtype
p6
(S'f4'
p7
I0
I1
tp8
Rp9
(I3
S'<'
p10
NNNI-1
I-1
I0
tp11
bS'\xa9\xf5\x05?'
p12
tp13
Rp14
ag5
(g9
S']`\x96>'
p15
tp16
Rp17
ag5
(g9
S'\x00\x12\x8f>'
p18
tp19
Rp20
ag5
(g9
S'I\xbd\xb7>'
p21
tp22
Rp23
ag5
(g9
S'\x92\xcd\x05?'
p24
tp25
Rp26
ag5
(g9
S'<\x12G?'
p27
tp28
Rp29
ag5
(g9
S'RC\x88?'
p30
tp31
Rp32
ag5
(g9
S'\xc4\x7f\x91?'
p33
tp34
Rp35
ag5
(g9
S'7i|?'
p36
tp37
Rp38
ag5
(g9
S'\x8d\xe5g?'
p39
tp40
Rp41
ag5
(g9
S'\x95O\xa9?'
p42
tp43
Rp44
ag5
(g9
S'\xbc\x8d\xed?'
p45
tp46
Rp47
ag5
(g9
S'?\xad]@'
p48
tp49
Rp50
ag5
(g9
S'\xbf\xef|@'
p51
tp52
Rp53
ag5
(g9
S'\xfey\x85@'
p54
tp55
Rp56
ag5
(g9
S's\xf7J@'
p57
tp58
Rp59
ag5
(g9
S'\x15\x9c,@'
p60
tp61
Rp62
ag5
(g9
S'\xbe\x9b\x19@'
p63
tp64
Rp65
ag5
(g9
S'6\xda\x0b@'
p66
tp67
Rp68
ag5
(g9
S'n,\x01@'
p69
tp70
Rp71
ag5
(g9
S'\x91\x1d\xf1?'
p72
tp73
Rp74
ag5
(g9
S'\x92\xdb\xe2?'
p75
tp76
Rp77
ag5
(g9
S'K\x14\xd6?'
p78
tp79
Rp80
ag5
(g9
S'5B\xca?'
p81
tp82
Rp83
ag5
(g9
S'\xdd\x0c\xbf?'
p84
tp85
Rp86
ag5
(g9
S'\x15[\xb4?'
p87
tp88
Rp89
ag5
(g9
S'Z.\xaa?'
p90
tp91
Rp92
ag5
(g9
S'\xcd\xa2\xa0?'
p93
tp94
Rp95
ag5
(g9
S'\x01\xa8\x97?'
p96
tp97
Rp98
ag5
(g9
S'\x88\xb3\x8f?'
p99
tp100
Rp101
ag5
(g9
S'iq\x88?'
p102
tp103
Rp104
ag5
(g9
S'n\xb8\x81?'
p105
tp106
Rp107
ag5
(g9
S'B\xd4v?'
p108
tp109
Rp110
ag5
(g9
S'~\xd7j?'
p111
tp112
Rp113
ag5
(g9
S'\x9e\x8f_?'
p114
tp115
Rp116
ag5
(g9
S'\x9c\xd3T?'
p117
tp118
Rp119
ag5
(g9
S'T\xc5J?'
p120
tp121
Rp122
ag5
(g9
S'??A?'
p123
tp124
Rp125
ag5
(g9
S'\\p8?'
p126
tp127
Rp128
ag5
(g9
S'\x9e\xb0/?'
p129
tp130
Rp131
ag5
(g9
S"v\xb4'?"
p132
tp133
Rp134
ag5
(g9
S'\xa8\xc4\x1f?'
p135
tp136
Rp137
ag5
(g9
S'|P\x18?'
p138
tp139
Rp140
ag5
(g9
S'\xef\x15\x11?'
p141
tp142
Rp143
ag5
(g9
S'\x0fQ\n?'
p144
tp145
Rp146
ag5
(g9
S'\x9c\xc4\x03?'
p147
tp148
Rp149
ag5
(g9
S'\x9aX\xfb>'
p150
tp151
Rp152
ag5
(g9
S'\x9b\x84\xef>'
p153
tp154
Rp155
ag5
(g9
S'5\xc4\xe4>'
p156
tp157
Rp158
ag5
(g9
S'\xd9 \xda>'
p159
tp160
Rp161
ag5
(g9
S'\xb80\xd0>'
p162
tp163
Rp164
ag5
(g9
S'\x0e\xba\xc6>'
p165
tp166
Rp167
ag5
(g9
S']\xa2\xbd>'
p168
tp169
Rp170
ag5
(g9
S'\x08\x00\xb5>'
p171
tp172
Rp173
ag5
(g9
S'\xd2\x03\xad>'
p174
tp175
Rp176
ag5
(g9
S'**\xa5>'
p177
tp178
Rp179
ag5
(g9
S'\xb4|\x9e>'
p180
tp181
Rp182
ag5
(g9
S'\xe0_\x97>'
p183
tp184
Rp185
ag5
(g9
S'f\xc7\x90>'
p186
tp187
Rp188
ag5
(g9
S'\xad\x89\x8a>'
p189
tp190
Rp191
ag5
(g9
S'I\x7f\x84>'
p192
tp193
Rp194
ag5
(g9
S'\x1d?}>'
p195
tp196
Rp197
ag5
(g9
S'\xed[s>'
p198
tp199
Rp200
ag5
(g9
S'\xb0\x95h>'
p201
tp202
Rp203
ag5
(g9
S'\xce\xff^>'
p204
tp205
Rp206
ag5
(g9
S'\x8a-U>'
p207
tp208
Rp209
ag5
(g9
S't`L>'
p210
tp211
Rp212
ag5
(g9
S'4}C>'
p213
tp214
Rp215
ag5
(g9
S'\xc0\x9b;>'
p216
tp217
Rp218
ag5
(g9
S'\xa8m3>'
p219
tp220
Rp221
ag5
(g9
S'.\xf3+>'
p222
tp223
Rp224
ag5
(g9
S'\x11\xc2$>'
p225
tp226
Rp227
ag5
(g9
S'8\xb7\x1e>'
p228
tp229
Rp230
ag5
(g9
S'\xcc\xf9\x17>'
p231
tp232
Rp233
ag5
(g9
S'\x1d\xbf\x11>'
p234
tp235
Rp236
ag5
(g9
S'\x80\xa5\x0b>'
p237
tp238
Rp239
ag5
(g9
S'\xb65\x06>'
p240
tp241
Rp242
ag5
(g9
S'\xb2\xc6\x00>'
p243
tp244
Rp245
ag5
(g9
S'\xc0\xa0\xf7='
p246
tp247
Rp248
ag5
(g9
S'\xe1\xff\xed='
p249
tp250
Rp251
ag5
(g9
S'r-\xe4='
p252
tp253
Rp254
ag5
(g9
S'\xbb\xf2\xda='
p255
tp256
Rp257
ag5
(g9
S'\xf9\x9b\xd2='
p258
tp259
Rp260
ag5
(g9
S'\xfa)\xca='
p261
tp262
Rp263
ag5
(g9
S'\x84\x80\xc6='
p264
tp265
Rp266
ag5
(g9
S'\rb\xbe='
p267
tp268
Rp269
ag5
(g9
S'lU\xb7='
p270
tp271
Rp272
ag5
(g9
S'\xd6\x98\xb0='
p273
tp274
Rp275
ag5
(g9
S'\xc1\xb5\xa9='
p276
tp277
Rp278
ag5
(g9
S'K\x84\xa6='
p279
tp280
Rp281
ag5
(g9
S'\x11\xda\x9f='
p282
tp283
Rp284
ag5
(g9
S';G\x9a='
p285
tp286
Rp287
ag5
(g9
S'\xdd\x91\x94='
p288
tp289
Rp290
ag5
(g9
S'\x81\xa3\x8f='
p291
tp292
Rp293
ag5
(g9
S'^e\x8a='
p294
tp295
Rp296
ag5
(g9
S'b\xb0\x86='
p297
tp298
Rp299
ag5
(g9
S'\xaf\xc2\x81='
p300
tp301
Rp302
ag5
(g9
S'\x1ex{='
p303
tp304
Rp305
ag5
(g9
S'\xfapr='
p306
tp307
Rp308
ag5
(g9
S'y\x06l='
p309
tp310
Rp311
ag5
(g9
S'\x0c\xc2c='
p312
tp313
Rp314
ag5
(g9
S'1\xdc\\='
p315
tp316
Rp317
ag5
(g9
S'\xeeLU='
p318
tp319
Rp320
ag5
(g9
S'\xba\x94N='
p321
tp322
Rp323
ag5
(g9
S'E\xa2G='
p324
tp325
Rp326
ag5
(g9
S'\xfa(C='
p327
tp328
Rp329
ag5
(g9
S'\x9b\xd2<='
p330
tp331
Rp332
ag5
(g9
S'\xa6>7='
p333
tp334
Rp335
ag5
(g9
S'\xa5\x991='
p336
tp337
Rp338
ag5
(g9
S'D\x1f,='
p339
tp340
Rp341
ag5
(g9
S'\xd3\x90&='
p342
tp343
Rp344
ag5
(g9
S'd_$='
p345
tp346
Rp347
ag5
(g9
S'6*\x1f='
p348
tp349
Rp350
ag5
(g9
S'\x97\x9d\x1a='
p351
tp352
Rp353
asS'new_err'
p354
(lp355
g5
(g6
(S'f8'
p356
I0
I1
tp357
Rp358
(I3
S'<'
p359
NNNI-1
I-1
I0
tp360
bS'UUUU\xa1.\x04@'
p361
tp362
Rp363
ag5
(g358
S'\x9a\x99\x99\x99\x0b\xe4\x02@'
p364
tp365
Rp366
ag5
(g358
S'\xef\xee\xee\xee\x06z\x02@'
p367
tp368
Rp369
ag5
(g358
S'\xab\xaa\xaa\xaa\xd6\xf7\x01@'
p370
tp371
Rp372
ag5
(g358
S'\x11\x11\x11\x11\xd92\x01@'
p373
tp374
Rp375
ag5
(g358
S'\x00\x00\x00\x00(\xef\xff?'
p376
tp377
Rp378
ag5
(g358
S'ffff\x12\xaa\xfc?'
p379
tp380
Rp381
ag5
(g358
S'ffff\x0e"\xfa?'
p382
tp383
Rp384
ag5
(g358
S'UUUU\x8b\x01\xf9?'
p385
tp386
Rp387
ag5
(g358
S'""""nT\xf8?'
p388
tp389
Rp390
ag5
(g358
S'\x89\x88\x88\x88p\x95\xf6?'
p391
tp392
Rp393
ag5
(g358
S'\x9a\x99\x99\x99\xc3\x1b\xf4?'
p394
tp395
Rp396
ag5
(g358
S'\xde\xdd\xdd\xdd\xdf\xae\xf0?'
p397
tp398
Rp399
ag5
(g358
S'3333\xdb\xde\xe1?'
p400
tp401
Rp402
ag5
(g358
S'ffffrN\xd5?'
p403
tp404
Rp405
ag5
(g358
S'ffff\x84L\xb8?'
p406
tp407
Rp408
ag5
(g358
S'UUUUm\x81\xa2?'
p409
tp410
Rp411
ag5
(g358
S'ffff2\xdf\x92?'
p412
tp413
Rp414
ag5
(g358
S'DDDDD\xb5\x88?'
p415
tp416
Rp417
ag5
(g358
S'""""l\xb5\x81?'
p418
tp419
Rp420
ag5
(g358
S'\xbc\xbb\xbb\xbb\xaf\x00|?'
p421
tp422
Rp423
ag5
(g358
S'""""^>w?'
p424
tp425
Rp426
ag5
(g358
S'""""\x00ut?'
p427
tp428
Rp429
ag5
(g358
S'\xab\xaa\xaa\xaa:)r?'
p430
tp431
Rp432
ag5
(g358
S'\xde\xdd\xdd\xdd\xddZp?'
p433
tp434
Rp435
ag5
(g358
S'\x00\x00\x00\x00\x14:m?'
p436
tp437
Rp438
ag5
(g358
S'\xef\xee\xee\xee\xe0\x00k?'
p439
tp440
Rp441
ag5
(g358
S'\x9a\x99\x99\x99}\xa0h?'
p442
tp443
Rp444
ag5
(g358
S'\xcd\xcc\xcc\xcc\xfc\xadf?'
p445
tp446
Rp447
ag5
(g358
S'\x00\x00\x00\x00 \xd3d?'
p448
tp449
Rp450
ag5
(g358
S'wwww\x85(c?'
p451
tp452
Rp453
ag5
(g358
S'\xbc\xbb\xbb\xbb\xeb\x9da?'
p454
tp455
Rp456
ag5
(g358
S'\x11\x11\x11\x11\xb3T`?'
p457
tp458
Rp459
ag5
(g358
S'\xbc\xbb\xbb\xbb\x87O^?'
p460
tp461
Rp462
ag5
(g358
S'\xef\xee\xee\xee\xeek\\?'
p463
tp464
Rp465
ag5
(g358
S'\x00\x00\x00\x00\x10\x86Z?'
p466
tp467
Rp468
ag5
(g358
S'\x00\x00\x00\x00x\xe2X?'
p469
tp470
Rp471
ag5
(g358
S'\x00\x00\x00\x00\xae=W?'
p472
tp473
Rp474
ag5
(g358
S'\xbc\xbb\xbb\xbb\x0b\xb6U?'
p475
tp476
Rp477
ag5
(g358
S'"""":DT?'
p478
tp479
Rp480
ag5
(g358
S'\xde\xdd\xdd\xdd\xcf\x1fS?'
p481
tp482
Rp483
ag5
(g358
S'\xcd\xcc\xcc\xcc.\xf3Q?'
p484
tp485
Rp486
ag5
(g358
S'\x11\x11\x11\x11\xc8\x0bQ?'
p487
tp488
Rp489
ag5
(g358
S'\x9a\x99\x99\x99U*P?'
p490
tp491
Rp492
ag5
(g358
S'ffff\x16\xd8N?'
p493
tp494
Rp495
ag5
(g358
S'\x00\x00\x00\x00\xe8LM?'
p496
tp497
Rp498
ag5
(g358
S'\x00\x00\x00\x00\xc8\xebK?'
p499
tp500
Rp501
ag5
(g358
S'\x00\x00\x00\x00\x8c\x8dJ?'
p502
tp503
Rp504
ag5
(g358
S'\xde\xdd\xdd\xdd\xd5GI?'
p505
tp506
Rp507
ag5
(g358
S'\x11\x11\x11\x11?\xf9G?'
p508
tp509
Rp510
ag5
(g358
S'\xbc\xbb\xbb\xbb\xeb\xdbF?'
p511
tp512
Rp513
ag5
(g358
S'\x00\x00\x00\x00\x98\xc3E?'
p514
tp515
Rp516
ag5
(g358
S'\xab\xaa\xaa\xaa\x0e\xbfD?'
p517
tp518
Rp519
ag5
(g358
S'""""\x00\xcfC?'
p520
tp521
Rp522
ag5
(g358
S'ffff\x1a\xe3B?'
p523
tp524
Rp525
ag5
(g358
S'\xef\xee\xee\xee.\xf7A?'
p526
tp527
Rp528
ag5
(g358
S'\xde\xdd\xdd\xdd\x8d\x10A?'
p529
tp530
Rp531
ag5
(g358
S'DDDD\x0c\x1d@?'
p532
tp533
Rp534
ag5
(g358
S'\xef\xee\xee\xee\xae\x9e>?'
p535
tp536
Rp537
ag5
(g358
S"\xbc\xbb\xbb\xbb'\x15=?"
p538
tp539
Rp540
ag5
(g358
S'\xab\xaa\xaa\xaa\xd6\xaa;?'
p541
tp542
Rp543
ag5
(g358
S'\x00\x00\x00\x00*b:?'
p544
tp545
Rp546
ag5
(g358
S'\x89\x88\x88\x88\xa4)9?'
p547
tp548
Rp549
ag5
(g358
S'\x9a\x99\x99\x99\xa9\xe87?'
p550
tp551
Rp552
ag5
(g358
S'\x00\x00\x00\x00&\xd56?'
p553
tp554
Rp555
ag5
(g358
S'\xde\xdd\xdd\xdd\x87\xcd5?'
p556
tp557
Rp558
ag5
(g358
S'3333\xc7\xe14?'
p559
tp560
Rp561
ag5
(g358
S'\xde\xdd\xdd\xdd\xf1\xfd3?'
p562
tp563
Rp564
ag5
(g358
S'\x00\x00\x00\x00\xd4-3?'
p565
tp566
Rp567
ag5
(g358
S'\xcd\xcc\xcc\xcctc2?'
p568
tp569
Rp570
ag5
(g358
S'3333\x19\xb01?'
p571
tp572
Rp573
ag5
(g358
S'\xef\xee\xee\xee\x00\x051?'
p574
tp575
Rp576
ag5
(g358
S'\xab\xaa\xaa\xaa\xe4\\0?'
p577
tp578
Rp579
ag5
(g358
S'ffffxg/?'
p580
tp581
Rp582
ag5
(g358
S'UUUU\x95B.?'
p583
tp584
Rp585
ag5
(g358
S'\x9a\x99\x99\x99\x85.-?'
p586
tp587
Rp588
ag5
(g358
S'\xef\xee\xee\xee\x92),?'
p589
tp590
Rp591
ag5
(g358
S'DDDD\xf6)+?'
p592
tp593
Rp594
ag5
(g358
S'\xde\xdd\xdd\xdd\r8*?'
p595
tp596
Rp597
ag5
(g358
S'\xef\xee\xee\xee@O)?'
p598
tp599
Rp600
ag5
(g358
S'\xde\xdd\xdd\xddWw(?'
p601
tp602
Rp603
ag5
(g358
S"DDDDx\xb3'?"
p604
tp605
Rp606
ag5
(g358
S'\x9a\x99\x99\x99\xfb\xf6&?'
p607
tp608
Rp609
ag5
(g358
S'\xef\xee\xee\xee\x14C&?'
p610
tp611
Rp612
ag5
(g358
S'""""\xaa\x89%?'
p613
tp614
Rp615
ag5
(g358
S'\xef\xee\xee\xeeN\xbb$?'
p616
tp617
Rp618
ag5
(g358
S'\x9a\x99\x99\x99\xa7\x11$?'
p619
tp620
Rp621
ag5
(g358
S'\xde\xdd\xdd\xdd\x1bq#?'
p622
tp623
Rp624
ag5
(g358
S'\x89\x88\x88\x88b\xdc"?'
p625
tp626
Rp627
ag5
(g358
S'UUUU7I"?'
p628
tp629
Rp630
ag5
(g358
S'DDDD\xc8\xad!?'
p631
tp632
Rp633
ag5
(g358
S'\xab\xaa\xaa\xaa\xd0(!?'
p634
tp635
Rp636
ag5
(g358
S'\x11\x11\x11\x11h\xaa ?'
p637
tp638
Rp639
ag5
(g358
S'\xbc\xbb\xbb\xbb\xad3 ?'
p640
tp641
Rp642
ag5
(g358
S'\x11\x11\x11\x11i\x83\x1f?'
p643
tp644
Rp645
ag5
(g358
S'\xab\xaa\xaa\xaaN\xa9\x1e?'
p646
tp647
Rp648
ag5
(g358
S'UUUU\xd9\xcf\x1d?'
p649
tp650
Rp651
ag5
(g358
S'\x9a\x99\x99\x99\xe1\x07\x1d?'
p652
tp653
Rp654
ag5
(g358
S'\xbc\xbb\xbb\xbboF\x1c?'
p655
tp656
Rp657
ag5
(g358
S'\xab\xaa\xaa\xaa\xb8\x8e\x1b?'
p658
tp659
Rp660
ag5
(g358
S'\xcd\xcc\xcc\xcc\xf0\xd9\x1a?'
p661
tp662
Rp663
ag5
(g358
S'\x00\x00\x00\x00x2\x1a?'
p664
tp665
Rp666
ag5
(g358
S'\x00\x00\x00\x00Z\x91\x19?'
p667
tp668
Rp669
ag5
(g358
S'\xbc\xbb\xbb\xbb\x9b\xfa\x18?'
p670
tp671
Rp672
ag5
(g358
S'3333\x8bj\x18?'
p673
tp674
Rp675
ag5
(g358
S'""""\x82\xdf\x17?'
p676
tp677
Rp678
ag5
(g358
S'3333\x8fU\x17?'
p679
tp680
Rp681
ag5
(g358
S'\xde\xdd\xdd\xddA\xd5\x16?'
p682
tp683
Rp684
ag5
(g358
S'\xbc\xbb\xbb\xbb\x07Z\x16?'
p685
tp686
Rp687
ag5
(g358
S'wwww\xd9\xe4\x15?'
p688
tp689
Rp690
ag5
(g358
S'\x89\x88\x88\x88hu\x15?'
p691
tp692
Rp693
ag5
(g358
S'UUUU\r\x08\x15?'
p694
tp695
Rp696
ag5
(g358
S'\x89\x88\x88\x88\xfa\x98\x14?'
p697
tp698
Rp699
ag5
(g358
S'\xde\xdd\xdd\xdd\x053\x14?'
p700
tp701
Rp702
asS'l_rate'
p703
(lp704
F1.0
aF1.0
aF1.0
aF1.0
aF1.0
aF1.0
aF1.0
aF1.0
aF1.0
aF1.0
aF1.0
aF1.0
aF1.0
aF1.0
aF1.0
aF1.0
aF1.0
aF1.0
aF1.0
aF1.0
aF1.0
aF1.0
aF1.0
aF1.0
aF1.0
aF1.0
aF1.0
aF1.0
aF1.0
aF1.0
aF1.0
aF1.0
aF1.0
aF1.0
aF1.0
aF1.0
aF1.0
aF1.0
aF1.0
aF1.0
aF1.0
aF1.0
aF1.0
aF1.0
aF1.0
aF1.0
aF1.0
aF1.0
aF1.0
aF1.0
aF1.0
aF1.0
aF1.0
aF1.0
aF1.0
aF1.0
aF1.0
aF1.0
aF1.0
aF1.0
aF1.0
aF1.0
aF1.0
aF1.0
aF1.0
aF1.0
aF1.0
aF1.0
aF1.0
aF1.0
aF1.0
aF1.0
aF1.0
aF1.0
aF1.0
aF1.0
aF1.0
aF1.0
aF1.0
aF1.0
aF1.0
aF1.0
aF1.0
aF1.0
aF1.0
aF1.0
aF1.0
aF1.0
aF1.0
aF1.0
aF1.0
aF1.0
aF1.0
aF1.0
aF1.0
aF1.0
aF1.0
aF1.0
aF1.0
aF1.0
aF1.0
aF1.0
aF1.0
aF1.0
aF1.0
aF1.0
aF1.0
aF1.0
aF1.0
aF1.0
aF1.0
aF1.0
aF1.0
aF1.0
asS'test_errs[-1]'
p705
(lp706
g5
(g358
S'UUUU\xa1.\x04@'
p707
tp708
Rp709
ag5
(g358
S'\x9a\x99\x99\x99\x0b\xe4\x02@'
p710
tp711
Rp712
ag5
(g358
S'\xef\xee\xee\xee\x06z\x02@'
p713
tp714
Rp715
ag5
(g358
S'\xab\xaa\xaa\xaa\xd6\xf7\x01@'
p716
tp717
Rp718
ag5
(g358
S'\x11\x11\x11\x11\xd92\x01@'
p719
tp720
Rp721
ag5
(g358
S'\x00\x00\x00\x00(\xef\xff?'
p722
tp723
Rp724
ag5
(g358
S'ffff\x12\xaa\xfc?'
p725
tp726
Rp727
ag5
(g358
S'ffff\x0e"\xfa?'
p728
tp729
Rp730
ag5
(g358
S'UUUU\x8b\x01\xf9?'
p731
tp732
Rp733
ag5
(g358
S'""""nT\xf8?'
p734
tp735
Rp736
ag5
(g358
S'\x89\x88\x88\x88p\x95\xf6?'
p737
tp738
Rp739
ag5
(g358
S'\x9a\x99\x99\x99\xc3\x1b\xf4?'
p740
tp741
Rp742
ag5
(g358
S'\xde\xdd\xdd\xdd\xdf\xae\xf0?'
p743
tp744
Rp745
ag5
(g358
S'3333\xdb\xde\xe1?'
p746
tp747
Rp748
ag5
(g358
S'ffffrN\xd5?'
p749
tp750
Rp751
ag5
(g358
S'ffff\x84L\xb8?'
p752
tp753
Rp754
ag5
(g358
S'UUUUm\x81\xa2?'
p755
tp756
Rp757
ag5
(g358
S'ffff2\xdf\x92?'
p758
tp759
Rp760
ag5
(g358
S'DDDDD\xb5\x88?'
p761
tp762
Rp763
ag5
(g358
S'""""l\xb5\x81?'
p764
tp765
Rp766
ag5
(g358
S'\xbc\xbb\xbb\xbb\xaf\x00|?'
p767
tp768
Rp769
ag5
(g358
S'""""^>w?'
p770
tp771
Rp772
ag5
(g358
S'""""\x00ut?'
p773
tp774
Rp775
ag5
(g358
S'\xab\xaa\xaa\xaa:)r?'
p776
tp777
Rp778
ag5
(g358
S'\xde\xdd\xdd\xdd\xddZp?'
p779
tp780
Rp781
ag5
(g358
S'\x00\x00\x00\x00\x14:m?'
p782
tp783
Rp784
ag5
(g358
S'\xef\xee\xee\xee\xe0\x00k?'
p785
tp786
Rp787
ag5
(g358
S'\x9a\x99\x99\x99}\xa0h?'
p788
tp789
Rp790
ag5
(g358
S'\xcd\xcc\xcc\xcc\xfc\xadf?'
p791
tp792
Rp793
ag5
(g358
S'\x00\x00\x00\x00 \xd3d?'
p794
tp795
Rp796
ag5
(g358
S'wwww\x85(c?'
p797
tp798
Rp799
ag5
(g358
S'\xbc\xbb\xbb\xbb\xeb\x9da?'
p800
tp801
Rp802
ag5
(g358
S'\x11\x11\x11\x11\xb3T`?'
p803
tp804
Rp805
ag5
(g358
S'\xbc\xbb\xbb\xbb\x87O^?'
p806
tp807
Rp808
ag5
(g358
S'\xef\xee\xee\xee\xeek\\?'
p809
tp810
Rp811
ag5
(g358
S'\x00\x00\x00\x00\x10\x86Z?'
p812
tp813
Rp814
ag5
(g358
S'\x00\x00\x00\x00x\xe2X?'
p815
tp816
Rp817
ag5
(g358
S'\x00\x00\x00\x00\xae=W?'
p818
tp819
Rp820
ag5
(g358
S'\xbc\xbb\xbb\xbb\x0b\xb6U?'
p821
tp822
Rp823
ag5
(g358
S'"""":DT?'
p824
tp825
Rp826
ag5
(g358
S'\xde\xdd\xdd\xdd\xcf\x1fS?'
p827
tp828
Rp829
ag5
(g358
S'\xcd\xcc\xcc\xcc.\xf3Q?'
p830
tp831
Rp832
ag5
(g358
S'\x11\x11\x11\x11\xc8\x0bQ?'
p833
tp834
Rp835
ag5
(g358
S'\x9a\x99\x99\x99U*P?'
p836
tp837
Rp838
ag5
(g358
S'ffff\x16\xd8N?'
p839
tp840
Rp841
ag5
(g358
S'\x00\x00\x00\x00\xe8LM?'
p842
tp843
Rp844
ag5
(g358
S'\x00\x00\x00\x00\xc8\xebK?'
p845
tp846
Rp847
ag5
(g358
S'\x00\x00\x00\x00\x8c\x8dJ?'
p848
tp849
Rp850
ag5
(g358
S'\xde\xdd\xdd\xdd\xd5GI?'
p851
tp852
Rp853
ag5
(g358
S'\x11\x11\x11\x11?\xf9G?'
p854
tp855
Rp856
ag5
(g358
S'\xbc\xbb\xbb\xbb\xeb\xdbF?'
p857
tp858
Rp859
ag5
(g358
S'\x00\x00\x00\x00\x98\xc3E?'
p860
tp861
Rp862
ag5
(g358
S'\xab\xaa\xaa\xaa\x0e\xbfD?'
p863
tp864
Rp865
ag5
(g358
S'""""\x00\xcfC?'
p866
tp867
Rp868
ag5
(g358
S'ffff\x1a\xe3B?'
p869
tp870
Rp871
ag5
(g358
S'\xef\xee\xee\xee.\xf7A?'
p872
tp873
Rp874
ag5
(g358
S'\xde\xdd\xdd\xdd\x8d\x10A?'
p875
tp876
Rp877
ag5
(g358
S'DDDD\x0c\x1d@?'
p878
tp879
Rp880
ag5
(g358
S'\xef\xee\xee\xee\xae\x9e>?'
p881
tp882
Rp883
ag5
(g358
S"\xbc\xbb\xbb\xbb'\x15=?"
p884
tp885
Rp886
ag5
(g358
S'\xab\xaa\xaa\xaa\xd6\xaa;?'
p887
tp888
Rp889
ag5
(g358
S'\x00\x00\x00\x00*b:?'
p890
tp891
Rp892
ag5
(g358
S'\x89\x88\x88\x88\xa4)9?'
p893
tp894
Rp895
ag5
(g358
S'\x9a\x99\x99\x99\xa9\xe87?'
p896
tp897
Rp898
ag5
(g358
S'\x00\x00\x00\x00&\xd56?'
p899
tp900
Rp901
ag5
(g358
S'\xde\xdd\xdd\xdd\x87\xcd5?'
p902
tp903
Rp904
ag5
(g358
S'3333\xc7\xe14?'
p905
tp906
Rp907
ag5
(g358
S'\xde\xdd\xdd\xdd\xf1\xfd3?'
p908
tp909
Rp910
ag5
(g358
S'\x00\x00\x00\x00\xd4-3?'
p911
tp912
Rp913
ag5
(g358
S'\xcd\xcc\xcc\xcctc2?'
p914
tp915
Rp916
ag5
(g358
S'3333\x19\xb01?'
p917
tp918
Rp919
ag5
(g358
S'\xef\xee\xee\xee\x00\x051?'
p920
tp921
Rp922
ag5
(g358
S'\xab\xaa\xaa\xaa\xe4\\0?'
p923
tp924
Rp925
ag5
(g358
S'ffffxg/?'
p926
tp927
Rp928
ag5
(g358
S'UUUU\x95B.?'
p929
tp930
Rp931
ag5
(g358
S'\x9a\x99\x99\x99\x85.-?'
p932
tp933
Rp934
ag5
(g358
S'\xef\xee\xee\xee\x92),?'
p935
tp936
Rp937
ag5
(g358
S'DDDD\xf6)+?'
p938
tp939
Rp940
ag5
(g358
S'\xde\xdd\xdd\xdd\r8*?'
p941
tp942
Rp943
ag5
(g358
S'\xef\xee\xee\xee@O)?'
p944
tp945
Rp946
ag5
(g358
S'\xde\xdd\xdd\xddWw(?'
p947
tp948
Rp949
ag5
(g358
S"DDDDx\xb3'?"
p950
tp951
Rp952
ag5
(g358
S'\x9a\x99\x99\x99\xfb\xf6&?'
p953
tp954
Rp955
ag5
(g358
S'\xef\xee\xee\xee\x14C&?'
p956
tp957
Rp958
ag5
(g358
S'""""\xaa\x89%?'
p959
tp960
Rp961
ag5
(g358
S'\xef\xee\xee\xeeN\xbb$?'
p962
tp963
Rp964
ag5
(g358
S'\x9a\x99\x99\x99\xa7\x11$?'
p965
tp966
Rp967
ag5
(g358
S'\xde\xdd\xdd\xdd\x1bq#?'
p968
tp969
Rp970
ag5
(g358
S'\x89\x88\x88\x88b\xdc"?'
p971
tp972
Rp973
ag5
(g358
S'UUUU7I"?'
p974
tp975
Rp976
ag5
(g358
S'DDDD\xc8\xad!?'
p977
tp978
Rp979
ag5
(g358
S'\xab\xaa\xaa\xaa\xd0(!?'
p980
tp981
Rp982
ag5
(g358
S'\x11\x11\x11\x11h\xaa ?'
p983
tp984
Rp985
ag5
(g358
S'\xbc\xbb\xbb\xbb\xad3 ?'
p986
tp987
Rp988
ag5
(g358
S'\x11\x11\x11\x11i\x83\x1f?'
p989
tp990
Rp991
ag5
(g358
S'\xab\xaa\xaa\xaaN\xa9\x1e?'
p992
tp993
Rp994
ag5
(g358
S'UUUU\xd9\xcf\x1d?'
p995
tp996
Rp997
ag5
(g358
S'\x9a\x99\x99\x99\xe1\x07\x1d?'
p998
tp999
Rp1000
ag5
(g358
S'\xbc\xbb\xbb\xbboF\x1c?'
p1001
tp1002
Rp1003
ag5
(g358
S'\xab\xaa\xaa\xaa\xb8\x8e\x1b?'
p1004
tp1005
Rp1006
ag5
(g358
S'\xcd\xcc\xcc\xcc\xf0\xd9\x1a?'
p1007
tp1008
Rp1009
ag5
(g358
S'\x00\x00\x00\x00x2\x1a?'
p1010
tp1011
Rp1012
ag5
(g358
S'\x00\x00\x00\x00Z\x91\x19?'
p1013
tp1014
Rp1015
ag5
(g358
S'\xbc\xbb\xbb\xbb\x9b\xfa\x18?'
p1016
tp1017
Rp1018
ag5
(g358
S'3333\x8bj\x18?'
p1019
tp1020
Rp1021
ag5
(g358
S'""""\x82\xdf\x17?'
p1022
tp1023
Rp1024
ag5
(g358
S'3333\x8fU\x17?'
p1025
tp1026
Rp1027
ag5
(g358
S'\xde\xdd\xdd\xddA\xd5\x16?'
p1028
tp1029
Rp1030
ag5
(g358
S'\xbc\xbb\xbb\xbb\x07Z\x16?'
p1031
tp1032
Rp1033
ag5
(g358
S'wwww\xd9\xe4\x15?'
p1034
tp1035
Rp1036
ag5
(g358
S'\x89\x88\x88\x88hu\x15?'
p1037
tp1038
Rp1039
ag5
(g358
S'UUUU\r\x08\x15?'
p1040
tp1041
Rp1042
ag5
(g358
S'\x89\x88\x88\x88\xfa\x98\x14?'
p1043
tp1044
Rp1045
ag5
(g358
S'\xde\xdd\xdd\xdd\x053\x14?'
p1046
tp1047
Rp1048
asS'np.linalg.norm(self.W)'
p1049
(lp1050
g5
(g9
S'\x08\xdb\xbfB'
p1051
tp1052
Rp1053
ag5
(g9
S'\xa7\xda\xbfB'
p1054
tp1055
Rp1056
ag5
(g9
S'D\xda\xbfB'
p1057
tp1058
Rp1059
ag5
(g9
S' \xda\xbfB'
p1060
tp1061
Rp1062
ag5
(g9
S'X\xdb\xbfB'
p1063
tp1064
Rp1065
ag5
(g9
S'J\xe0\xbfB'
p1066
tp1067
Rp1068
ag5
(g9
S'\xe4\xeb\xbfB'
p1069
tp1070
Rp1071
ag5
(g9
S'\x9f\xfb\xbfB'
p1072
tp1073
Rp1074
ag5
(g9
S'\xb8\x0f\xc0B'
p1075
tp1076
Rp1077
ag5
(g9
S'\xb8(\xc0B'
p1078
tp1079
Rp1080
ag5
(g9
S'\xc8Q\xc0B'
p1081
tp1082
Rp1083
ag5
(g9
S'\xcb\x88\xc0B'
p1084
tp1085
Rp1086
ag5
(g9
S'\xb3\xe8\xc0B'
p1087
tp1088
Rp1089
ag5
(g9
S'AC\xc1B'
p1090
tp1091
Rp1092
ag5
(g9
S'\xe4\xdc\xc1B'
p1093
tp1094
Rp1095
ag5
(g9
S'\xefa\xc2B'
p1096
tp1097
Rp1098
ag5
(g9
S'\xbb\xf5\xc2B'
p1099
tp1100
Rp1101
ag5
(g9
S'(\x8c\xc3B'
p1102
tp1103
Rp1104
ag5
(g9
S'o%\xc4B'
p1105
tp1106
Rp1107
ag5
(g9
S'k\xc2\xc4B'
p1108
tp1109
Rp1110
ag5
(g9
S'\xd0b\xc5B'
p1111
tp1112
Rp1113
ag5
(g9
S'C\x07\xc6B'
p1114
tp1115
Rp1116
ag5
(g9
S'*\xad\xc6B'
p1117
tp1118
Rp1119
ag5
(g9
S'{S\xc7B'
p1120
tp1121
Rp1122
ag5
(g9
S'\x9c\xf9\xc7B'
p1123
tp1124
Rp1125
ag5
(g9
S'\x1b\x9e\xc8B'
p1126
tp1127
Rp1128
ag5
(g9
S'\xfd?\xc9B'
p1129
tp1130
Rp1131
ag5
(g9
S'd\xde\xc9B'
p1132
tp1133
Rp1134
ag5
(g9
S'\xadx\xcaB'
p1135
tp1136
Rp1137
ag5
(g9
S'\x17\x0f\xcbB'
p1138
tp1139
Rp1140
ag5
(g9
S'\xa3\xa1\xcbB'
p1141
tp1142
Rp1143
ag5
(g9
S']0\xccB'
p1144
tp1145
Rp1146
ag5
(g9
S')\xbb\xccB'
p1147
tp1148
Rp1149
ag5
(g9
S'\x03B\xcdB'
p1150
tp1151
Rp1152
ag5
(g9
S'\xc6\xc4\xcdB'
p1153
tp1154
Rp1155
ag5
(g9
S'UC\xceB'
p1156
tp1157
Rp1158
ag5
(g9
S'\xa9\xbd\xceB'
p1159
tp1160
Rp1161
ag5
(g9
S'\xa23\xcfB'
p1162
tp1163
Rp1164
ag5
(g9
S':\xa5\xcfB'
p1165
tp1166
Rp1167
ag5
(g9
S'\xb4\x12\xd0B'
p1168
tp1169
Rp1170
ag5
(g9
S'\xc6{\xd0B'
p1171
tp1172
Rp1173
ag5
(g9
S'\xca\xe0\xd0B'
p1174
tp1175
Rp1176
ag5
(g9
S'\xc3A\xd1B'
p1177
tp1178
Rp1179
ag5
(g9
S'\xcc\x9e\xd1B'
p1180
tp1181
Rp1182
ag5
(g9
S'\xeb\xf7\xd1B'
p1183
tp1184
Rp1185
ag5
(g9
S'dM\xd2B'
p1186
tp1187
Rp1188
ag5
(g9
S'+\x9f\xd2B'
p1189
tp1190
Rp1191
ag5
(g9
S'{\xed\xd2B'
p1192
tp1193
Rp1194
ag5
(g9
S'I8\xd3B'
p1195
tp1196
Rp1197
ag5
(g9
S'\xcd\x7f\xd3B'
p1198
tp1199
Rp1200
ag5
(g9
S'\x19\xc4\xd3B'
p1201
tp1202
Rp1203
ag5
(g9
S'M\x05\xd4B'
p1204
tp1205
Rp1206
ag5
(g9
S'xC\xd4B'
p1207
tp1208
Rp1209
ag5
(g9
S'\xcc~\xd4B'
p1210
tp1211
Rp1212
ag5
(g9
S'O\xb7\xd4B'
p1213
tp1214
Rp1215
ag5
(g9
S'2\xed\xd4B'
p1216
tp1217
Rp1218
ag5
(g9
S'Y \xd5B'
p1219
tp1220
Rp1221
ag5
(g9
S'(Q\xd5B'
p1222
tp1223
Rp1224
ag5
(g9
S'\x9f\x7f\xd5B'
p1225
tp1226
Rp1227
ag5
(g9
S'\xcc\xab\xd5B'
p1228
tp1229
Rp1230
ag5
(g9
S'\xe8\xd5\xd5B'
p1231
tp1232
Rp1233
ag5
(g9
S'\xf9\xfd\xd5B'
p1234
tp1235
Rp1236
ag5
(g9
S'\x03$\xd6B'
p1237
tp1238
Rp1239
ag5
(g9
S'2H\xd6B'
p1240
tp1241
Rp1242
ag5
(g9
S'\x95j\xd6B'
p1243
tp1244
Rp1245
ag5
(g9
S'G\x8b\xd6B'
p1246
tp1247
Rp1248
ag5
(g9
S'U\xaa\xd6B'
p1249
tp1250
Rp1251
ag5
(g9
S'\xdd\xc7\xd6B'
p1252
tp1253
Rp1254
ag5
(g9
S'\xea\xe3\xd6B'
p1255
tp1256
Rp1257
ag5
(g9
S'\x8e\xfe\xd6B'
p1258
tp1259
Rp1260
ag5
(g9
S'\xd9\x17\xd7B'
p1261
tp1262
Rp1263
ag5
(g9
S'\xe1/\xd7B'
p1264
tp1265
Rp1266
ag5
(g9
S'\xa3F\xd7B'
p1267
tp1268
Rp1269
ag5
(g9
S'H\\\xd7B'
p1270
tp1271
Rp1272
ag5
(g9
S'\xcdp\xd7B'
p1273
tp1274
Rp1275
ag5
(g9
S'X\x84\xd7B'
p1276
tp1277
Rp1278
ag5
(g9
S'\xe3\x96\xd7B'
p1279
tp1280
Rp1281
ag5
(g9
S'x\xa8\xd7B'
p1282
tp1283
Rp1284
ag5
(g9
S'2\xb9\xd7B'
p1285
tp1286
Rp1287
ag5
(g9
S'\r\xc9\xd7B'
p1288
tp1289
Rp1290
ag5
(g9
S'%\xd8\xd7B'
p1291
tp1292
Rp1293
ag5
(g9
S'v\xe6\xd7B'
p1294
tp1295
Rp1296
ag5
(g9
S'\x1a\xf4\xd7B'
p1297
tp1298
Rp1299
ag5
(g9
S'\t\x01\xd8B'
p1300
tp1301
Rp1302
ag5
(g9
S'J\r\xd8B'
p1303
tp1304
Rp1305
ag5
(g9
S'\xee\x18\xd8B'
p1306
tp1307
Rp1308
ag5
(g9
S'\xfc#\xd8B'
p1309
tp1310
Rp1311
ag5
(g9
S'}.\xd8B'
p1312
tp1313
Rp1314
ag5
(g9
S'{8\xd8B'
p1315
tp1316
Rp1317
ag5
(g9
S'\xeeA\xd8B'
p1318
tp1319
Rp1320
ag5
(g9
S'\xfaJ\xd8B'
p1321
tp1322
Rp1323
ag5
(g9
S'\x89S\xd8B'
p1324
tp1325
Rp1326
ag5
(g9
S'\xa6[\xd8B'
p1327
tp1328
Rp1329
ag5
(g9
S'cc\xd8B'
p1330
tp1331
Rp1332
ag5
(g9
S'\xbaj\xd8B'
p1333
tp1334
Rp1335
ag5
(g9
S'\xb0q\xd8B'
p1336
tp1337
Rp1338
ag5
(g9
S'Mx\xd8B'
p1339
tp1340
Rp1341
ag5
(g9
S'\x97~\xd8B'
p1342
tp1343
Rp1344
ag5
(g9
S'\x90\x84\xd8B'
p1345
tp1346
Rp1347
ag5
(g9
S'@\x8a\xd8B'
p1348
tp1349
Rp1350
ag5
(g9
S'\x9d\x8f\xd8B'
p1351
tp1352
Rp1353
ag5
(g9
S'\xaf\x94\xd8B'
p1354
tp1355
Rp1356
ag5
(g9
S'\x86\x99\xd8B'
p1357
tp1358
Rp1359
ag5
(g9
S'&\x9e\xd8B'
p1360
tp1361
Rp1362
ag5
(g9
S'\x84\xa2\xd8B'
p1363
tp1364
Rp1365
ag5
(g9
S'\xa7\xa6\xd8B'
p1366
tp1367
Rp1368
ag5
(g9
S'\x97\xaa\xd8B'
p1369
tp1370
Rp1371
ag5
(g9
S'J\xae\xd8B'
p1372
tp1373
Rp1374
ag5
(g9
S'\xd0\xb1\xd8B'
p1375
tp1376
Rp1377
ag5
(g9
S',\xb5\xd8B'
p1378
tp1379
Rp1380
ag5
(g9
S'\\\xb8\xd8B'
p1381
tp1382
Rp1383
ag5
(g9
S'X\xbb\xd8B'
p1384
tp1385
Rp1386
ag5
(g9
S'8\xbe\xd8B'
p1387
tp1388
Rp1389
ag5
(g9
S'\xeb\xc0\xd8B'
p1390
tp1391
Rp1392
asS'deltas[-1][0]'
p1393
(lp1394
I87
aI91
aI96
aI99
aI95
aI94
aI94
aI99
aI99
aI99
aI99
aI99
aI99
aI99
aI99
aI99
aI99
aI99
aI99
aI99
aI99
aI99
aI99
aI99
aI99
aI99
aI99
aI99
aI99
aI99
aI99
aI99
aI99
aI99
aI99
aI99
aI99
aI99
aI99
aI99
aI99
aI99
aI99
aI99
aI99
aI99
aI99
aI99
aI99
aI99
aI99
aI99
aI99
aI99
aI99
aI99
aI99
aI99
aI99
aI99
aI99
aI99
aI99
aI99
aI99
aI99
aI99
aI99
aI99
aI99
aI99
aI99
aI99
aI99
aI99
aI99
aI99
aI99
aI99
aI99
aI99
aI99
aI99
aI99
aI99
aI99
aI99
aI99
aI99
aI99
aI99
aI99
aI99
aI99
aI99
aI99
aI99
aI99
aI99
aI99
aI99
aI99
aI99
aI99
aI99
aI99
aI99
aI99
aI99
aI99
aI99
aI99
aI99
aI99
as.