(dp0
S'self.damping'
p1
(lp2
F0.66
aF0.43560000000000004
aF0.28749600000000003
aF0.18974736000000003
aF0.12523325760000004
aF0.08265395001600002
aF0.05455160701056002
aF0.03600406062696961
aF0.023762680013799945
aF0.015683368809107964
aF0.010351023414011257
aF0.00683167545324743
asS'np.linalg.norm(delta)'
p3
(lp4
cnumpy.core.multiarray
scalar
p5
(cnumpy
dtype
p6
(S'f4'
p7
I0
I1
tp8
Rp9
(I3
S'<'
p10
NNNI-1
I-1
I0
tp11
bS'\x88\x8dq?'
p12
tp13
Rp14
ag5
(g9
S'O\x80\xfa>'
p15
tp16
Rp17
ag5
(g9
S'\xf7\x85\xa2>'
p18
tp19
Rp20
ag5
(g9
S'`=\x95>'
p21
tp22
Rp23
ag5
(g9
S'\x7f\xf0\xc5>'
p24
tp25
Rp26
ag5
(g9
S'\x0f\xa1\x13?'
p27
tp28
Rp29
ag5
(g9
S'B\xdbU?'
p30
tp31
Rp32
ag5
(g9
S'Q`}?'
p33
tp34
Rp35
ag5
(g9
S'\xe6)W?'
p36
tp37
Rp38
ag5
(g9
S't,.?'
p39
tp40
Rp41
ag5
(g9
S'\x94\x82\x16?'
p42
tp43
Rp44
ag5
(g9
S'\x12b\x02?'
p45
tp46
Rp47
asS'new_err'
p48
(lp49
g5
(g6
(S'f8'
p50
I0
I1
tp51
Rp52
(I3
S'<'
p53
NNNI-1
I-1
I0
tp54
bS'\x00\x00\x00@\xaf\xc0\x06@'
p55
tp56
Rp57
ag5
(g52
S'\x00\x00\x00\xa0\x1c\x93\x03@'
p58
tp59
Rp60
ag5
(g52
S'\x00\x00\x00\x80\x91\xee\x02@'
p61
tp62
Rp63
ag5
(g52
S'\x00\x00\x00\xa0\x14\x94\x02@'
p64
tp65
Rp66
ag5
(g52
S'\x00\x00\x00\xe0\x84\x1e\x02@'
p67
tp68
Rp69
ag5
(g52
S'\x00\x00\x00 3f\x01@'
p70
tp71
Rp72
ag5
(g52
S'\x00\x00\x00\x80\x93m\x00@'
p73
tp74
Rp75
ag5
(g52
S'\x00\x00\x00\x00{/\xff?'
p76
tp77
Rp78
ag5
(g52
S'\x00\x00\x00\xc0\n|\xfe?'
p79
tp80
Rp81
ag5
(g52
S'\x00\x00\x00`\xd0:\xfe?'
p82
tp83
Rp84
ag5
(g52
S'\x00\x00\x00\x00c\x1c\xfe?'
p85
tp86
Rp87
ag5
(g52
S'\x00\x00\x00@\\\r\xfe?'
p88
tp89
Rp90
asS'l_rate'
p91
(lp92
F1.0
aF1.0
aF1.0
aF1.0
aF1.0
aF1.0
aF1.0
aF1.0
aF1.0
aF1.0
aF1.0
aF1.0
asS'test_errs[-1]'
p93
(lp94
g5
(g52
S'\x00\x00\x00@\xaf\xc0\x06@'
p95
tp96
Rp97
ag5
(g52
S'\x00\x00\x00\xa0\x1c\x93\x03@'
p98
tp99
Rp100
ag5
(g52
S'\x00\x00\x00\x80\x91\xee\x02@'
p101
tp102
Rp103
ag5
(g52
S'\x00\x00\x00\xa0\x14\x94\x02@'
p104
tp105
Rp106
ag5
(g52
S'\x00\x00\x00\xe0\x84\x1e\x02@'
p107
tp108
Rp109
ag5
(g52
S'\x00\x00\x00 3f\x01@'
p110
tp111
Rp112
ag5
(g52
S'\x00\x00\x00\x80\x93m\x00@'
p113
tp114
Rp115
ag5
(g52
S'\x00\x00\x00\x00{/\xff?'
p116
tp117
Rp118
ag5
(g52
S'\x00\x00\x00\xc0\n|\xfe?'
p119
tp120
Rp121
ag5
(g52
S'\x00\x00\x00`\xd0:\xfe?'
p122
tp123
Rp124
ag5
(g52
S'\x00\x00\x00\x00c\x1c\xfe?'
p125
tp126
Rp127
ag5
(g52
S'\x00\x00\x00@\\\r\xfe?'
p128
tp129
Rp130
asS'np.linalg.norm(self.W)'
p131
(lp132
g5
(g9
S'\x16]\xbdA'
p133
tp134
Rp135
ag5
(g9
S'\xebi\xbdA'
p136
tp137
Rp138
ag5
(g9
S'\x9dn\xbdA'
p139
tp140
Rp141
ag5
(g9
S'gj\xbdA'
p142
tp143
Rp144
ag5
(g9
S'0l\xbdA'
p145
tp146
Rp147
ag5
(g9
S'\xa8\x99\xbdA'
p148
tp149
Rp150
ag5
(g9
S'J/\xbeA'
p151
tp152
Rp153
ag5
(g9
S'\xa1>\xbfA'
p154
tp155
Rp156
ag5
(g9
S'!j\xc0A'
p157
tp158
Rp159
ag5
(g9
S'\xafz\xc1A'
p160
tp161
Rp162
ag5
(g9
S'\x86z\xc2A'
p163
tp164
Rp165
ag5
(g9
S';q\xc3A'
p166
tp167
Rp168
asS'deltas[-1][0]'
p169
(lp170
I23
aI24
aI23
aI24
aI24
aI24
aI23
aI24
aI25
aI26
aI24
aI26
as.