(dp0
S'self.damping'
p1
(lp2
F0.66
aF0.43560000000000004
aF0.28749600000000003
aF0.18974736000000003
aF0.12523325760000004
aF0.08265395001600002
aF0.05455160701056002
aF0.03600406062696961
aF0.023762680013799945
aF0.015683368809107964
aF0.010351023414011257
aF0.00683167545324743
aF0.004508905799143304
aF0.002975877827434581
aF0.0019640793661068233
aF0.002946119049160235
aF0.004419178573740352
aF0.004419178573740352
aF0.004419178573740352
aF0.0029166578586686327
aF0.0019249941867212977
aF0.0012704961632360565
aF0.0008385274677357973
aF0.0005534281287056262
aF0.00036526256494571335
aF0.00036526256494571335
asS'np.linalg.norm(delta)'
p3
(lp4
cnumpy.core.multiarray
scalar
p5
(cnumpy
dtype
p6
(S'f4'
p7
I0
I1
tp8
Rp9
(I3
S'<'
p10
NNNI-1
I-1
I0
tp11
bS'\xb8\xd8\xe5?'
p12
tp13
Rp14
ag5
(g9
S'\x19pX>'
p15
tp16
Rp17
ag5
(g9
S'W\xee\\>'
p18
tp19
Rp20
ag5
(g9
S'\x0e.\x9e>'
p21
tp22
Rp23
ag5
(g9
S'\xd1\x1f\x00?'
p24
tp25
Rp26
ag5
(g9
S'\xdfsY?'
p27
tp28
Rp29
ag5
(g9
S'*\xa8\xa8?'
p30
tp31
Rp32
ag5
(g9
S'f\xe7\x97?'
p33
tp34
Rp35
ag5
(g9
S'x&f?'
p36
tp37
Rp38
ag5
(g9
S'\xfbNL?'
p39
tp40
Rp41
ag5
(g9
S'\xac^1?'
p42
tp43
Rp44
ag5
(g9
S'\xf9\x8d\x1a?'
p45
tp46
Rp47
ag5
(g9
S'!gC?'
p48
tp49
Rp50
ag5
(g9
S'\x8f{\x19@'
p51
tp52
Rp53
ag5
(g9
S'\xd6\x92[@'
p54
tp55
Rp56
ag5
(g9
S'\xe3\xb8\xd7@'
p57
tp58
Rp59
ag5
(g9
S'-\xe0\xc5@'
p60
tp61
Rp62
ag5
(g9
S'\x85\xef\xa6@'
p63
tp64
Rp65
ag5
(g9
S'\x85m\x9b@'
p66
tp67
Rp68
ag5
(g9
S'\xaeep@'
p69
tp70
Rp71
ag5
(g9
S'T\xf1-@'
p72
tp73
Rp74
ag5
(g9
S'\xb0\x08\t@'
p75
tp76
Rp77
ag5
(g9
S'\xd0\x06\xdf?'
p78
tp79
Rp80
ag5
(g9
S'\xa7v\xc2?'
p81
tp82
Rp83
ag5
(g9
S'\xf6&\xb2?'
p84
tp85
Rp86
ag5
(g9
S'\xde\xef\x9f?'
p87
tp88
Rp89
asS'new_err'
p90
(lp91
g5
(g6
(S'f8'
p92
I0
I1
tp93
Rp94
(I3
S'<'
p95
NNNI-1
I-1
I0
tp96
bS'\x00\x00\x00\xc0\x90\xff\x05@'
p97
tp98
Rp99
ag5
(g94
S'\x00\x00\x00 Nw\x05@'
p100
tp101
Rp102
ag5
(g94
S'\x00\x00\x00\x80\xdc?\x05@'
p103
tp104
Rp105
ag5
(g94
S'\x00\x00\x00\x80\xb4\xee\x04@'
p106
tp107
Rp108
ag5
(g94
S'\x00\x00\x00\x80WN\x04@'
p109
tp110
Rp111
ag5
(g94
S'\x00\x00\x00\xc0G\xc5\x02@'
p112
tp113
Rp114
ag5
(g94
S'\x00\x00\x00\xe0\x8aO\x00@'
p115
tp116
Rp117
ag5
(g94
S'\x00\x00\x00\xa0L\r\xfe?'
p118
tp119
Rp120
ag5
(g94
S'\x00\x00\x00\xa0\x8aU\xfd?'
p121
tp122
Rp123
ag5
(g94
S'\x00\x00\x00 \xac\xfb\xfc?'
p124
tp125
Rp126
ag5
(g94
S'\x00\x00\x00`/\xce\xfc?'
p127
tp128
Rp129
ag5
(g94
S'\x00\x00\x00\xc01\xb7\xfc?'
p130
tp131
Rp132
ag5
(g94
S'\x00\x00\x00\xe0\xc8\x93\xfc?'
p133
tp134
Rp135
ag5
(g94
S'\x00\x00\x00\xa0y,\xfb?'
p136
tp137
Rp138
ag5
(g94
S'\x00\x00\x00\xc0b\xe1\xf6?'
p139
tp140
Rp141
ag5
(g94
S'\x00\x00\x00\xe0\xb9\xc1\xf5?'
p142
tp143
Rp144
ag5
(g94
S'\x00\x00\x00@\x19,\xf5?'
p145
tp146
Rp147
ag5
(g94
S'\x00\x00\x00\xe0o\xb6\xef?'
p148
tp149
Rp150
ag5
(g94
S'\x00\x00\x00\xc0\xdc=\xe1?'
p151
tp152
Rp153
ag5
(g94
S'\x00\x00\x00\x00\tc\xc8?'
p154
tp155
Rp156
ag5
(g94
S'\x00\x00\x00 4B\xad?'
p157
tp158
Rp159
ag5
(g94
S'\x00\x00\x00`u\xc6\x8e?'
p160
tp161
Rp162
ag5
(g94
S'\x00\x00\x00@[ns?'
p163
tp164
Rp165
ag5
(g94
S'\x00\x00\x00 \xf7p]?'
p166
tp167
Rp168
ag5
(g94
S'\x00\x00\x00\xc0\x9cZN?'
p169
tp170
Rp171
ag5
(g94
S'\x00\x00\x00\x00\x84TE?'
p172
tp173
Rp174
asS'l_rate'
p175
(lp176
F1.0
aF1.0
aF1.0
aF1.0
aF1.0
aF1.0
aF1.0
aF1.0
aF1.0
aF1.0
aF1.0
aF1.0
aF1.0
aF1.0
aF1.0
aF0.8
aF1.0
aF1.0
aF1.0
aF1.0
aF1.0
aF1.0
aF1.0
aF1.0
aF1.0
aF1.0
asS'test_errs[-1]'
p177
(lp178
g5
(g94
S'\x00\x00\x00\xc0\x90\xff\x05@'
p179
tp180
Rp181
ag5
(g94
S'\x00\x00\x00 Nw\x05@'
p182
tp183
Rp184
ag5
(g94
S'\x00\x00\x00\x80\xdc?\x05@'
p185
tp186
Rp187
ag5
(g94
S'\x00\x00\x00\x80\xb4\xee\x04@'
p188
tp189
Rp190
ag5
(g94
S'\x00\x00\x00\x80WN\x04@'
p191
tp192
Rp193
ag5
(g94
S'\x00\x00\x00\xc0G\xc5\x02@'
p194
tp195
Rp196
ag5
(g94
S'\x00\x00\x00\xe0\x8aO\x00@'
p197
tp198
Rp199
ag5
(g94
S'\x00\x00\x00\xa0L\r\xfe?'
p200
tp201
Rp202
ag5
(g94
S'\x00\x00\x00\xa0\x8aU\xfd?'
p203
tp204
Rp205
ag5
(g94
S'\x00\x00\x00 \xac\xfb\xfc?'
p206
tp207
Rp208
ag5
(g94
S'\x00\x00\x00`/\xce\xfc?'
p209
tp210
Rp211
ag5
(g94
S'\x00\x00\x00\xc01\xb7\xfc?'
p212
tp213
Rp214
ag5
(g94
S'\x00\x00\x00\xe0\xc8\x93\xfc?'
p215
tp216
Rp217
ag5
(g94
S'\x00\x00\x00\xa0y,\xfb?'
p218
tp219
Rp220
ag5
(g94
S'\x00\x00\x00\xc0b\xe1\xf6?'
p221
tp222
Rp223
ag5
(g94
S'\x00\x00\x00\xe0\xb9\xc1\xf5?'
p224
tp225
Rp226
ag5
(g94
S'\x00\x00\x00@\x19,\xf5?'
p227
tp228
Rp229
ag5
(g94
S'\x00\x00\x00\xe0o\xb6\xef?'
p230
tp231
Rp232
ag5
(g94
S'\x00\x00\x00\xc0\xdc=\xe1?'
p233
tp234
Rp235
ag5
(g94
S'\x00\x00\x00\x00\tc\xc8?'
p236
tp237
Rp238
ag5
(g94
S'\x00\x00\x00 4B\xad?'
p239
tp240
Rp241
ag5
(g94
S'\x00\x00\x00`u\xc6\x8e?'
p242
tp243
Rp244
ag5
(g94
S'\x00\x00\x00@[ns?'
p245
tp246
Rp247
ag5
(g94
S'\x00\x00\x00 \xf7p]?'
p248
tp249
Rp250
ag5
(g94
S'\x00\x00\x00\xc0\x9cZN?'
p251
tp252
Rp253
ag5
(g94
S'\x00\x00\x00\x00\x84TE?'
p254
tp255
Rp256
asS'np.linalg.norm(self.W)'
p257
(lp258
g5
(g9
S'I\x83pB'
p259
tp260
Rp261
ag5
(g9
S'\x03\x83pB'
p262
tp263
Rp264
ag5
(g9
S'n\x82pB'
p265
tp266
Rp267
ag5
(g9
S'\xad\x82pB'
p268
tp269
Rp270
ag5
(g9
S'\xda\x86pB'
p271
tp272
Rp273
ag5
(g9
S'A\x99pB'
p274
tp275
Rp276
ag5
(g9
S'r\xd6pB'
p277
tp278
Rp279
ag5
(g9
S'k*qB'
p280
tp281
Rp282
ag5
(g9
S'+oqB'
p283
tp284
Rp285
ag5
(g9
S'\xd3\xb0qB'
p286
tp287
Rp288
ag5
(g9
S'\xdb\xf4qB'
p289
tp290
Rp291
ag5
(g9
S'\xda<rB'
p292
tp293
Rp294
ag5
(g9
S'\xe1\x9crB'
p295
tp296
Rp297
ag5
(g9
S'Z\xb5sB'
p298
tp299
Rp300
ag5
(g9
S't2tB'
p301
tp302
Rp303
ag5
(g9
S'\x9a\xf7uB'
p304
tp305
Rp306
ag5
(g9
S'\xc3\xedwB'
p307
tp308
Rp309
ag5
(g9
S'Q:{B'
p310
tp311
Rp312
ag5
(g9
S'\x15\xdf|B'
p313
tp314
Rp315
ag5
(g9
S'\xdf\xd6~B'
p316
tp317
Rp318
ag5
(g9
S'9`\x80B'
p319
tp320
Rp321
ag5
(g9
S'\xf1b\x81B'
p322
tp323
Rp324
ag5
(g9
S'\x0eR\x82B'
p325
tp326
Rp327
ag5
(g9
S'\x853\x83B'
p328
tp329
Rp330
ag5
(g9
S'j\x0f\x84B'
p331
tp332
Rp333
ag5
(g9
S'|\xde\x84B'
p334
tp335
Rp336
asS'deltas[-1][0]'
p337
(lp338
I34
aI41
aI38
aI38
aI38
aI37
aI43
aI39
aI44
aI42
aI44
aI52
aI57
aI63
aI97
aI99
aI99
aI99
aI99
aI99
aI99
aI99
aI99
aI99
aI99
aI99
as.