(dp0
S'self.damping'
p1
(lp2
F0.66
aF0.43560000000000004
aF0.28749600000000003
aF0.18974736000000003
aF0.12523325760000004
aF0.08265395001600002
aF0.05455160701056002
aF0.03600406062696961
aF0.023762680013799945
aF0.015683368809107964
aF0.010351023414011257
aF0.00683167545324743
aF0.004508905799143304
aF0.002975877827434581
aF0.0019640793661068233
aF0.0012962923816305036
aF0.0008555529718761324
aF0.0008555529718761324
aF0.0008555529718761324
aF0.0008555529718761324
aF0.0012833294578141986
aF0.001924994186721298
aF0.002887491280081947
aF0.004331236920122921
aF0.002858616367281128
aF0.002858616367281128
aF0.002858616367281128
aF0.004287924550921692
aF0.006431886826382538
aF0.006431886826382538
aF0.006431886826382538
aF0.009647830239573808
aF0.009647830239573808
aF0.014471745359360712
aF0.021707618039041067
aF0.014327027905767105
aF0.009455838417806289
aF0.006240853355752151
aF0.00411896321479642
aF0.002718515721765637
aF0.0017942203763653207
aF0.0011841854484011117
aF0.0007815623959447338
aF0.0005158311813235244
aF0.00034044857967352606
aF0.00022469606258452722
aF0.00014829940130578798
aF9.787760486182008e-05
aF6.459921920880125e-05
aF4.263548467780883e-05
aF2.813941988735383e-05
aF1.8572017125653527e-05
aF1.2257531302931329e-05
aF8.089970659934677e-06
aF5.339380635556887e-06
aF3.5239912194675457e-06
aF2.3258342048485803e-06
aF1.5350505752000631e-06
aF1.0131333796320417e-06
aF6.686680305571476e-07
aF4.413209001677174e-07
aF2.9127179411069353e-07
aF1.9223938411305774e-07
aF1.2687799351461813e-07
aF8.373947571964798e-08
aF5.526805397496767e-08
aF3.6476915623478664e-08
aF2.407476431149592e-08
aF1.5889344445587308e-08
aF1.0486967334087624e-08
aF6.921398440497832e-09
aF4.56812297072857e-09
aF3.0149611606808564e-09
aF1.9898743660493652e-09
aF1.3133170815925812e-09
aF8.667892738511037e-10
aF5.720809207417284e-10
aF3.775734076895408e-10
aF2.4919844907509694e-10
aF1.64470976389564e-10
aF1.0855084441711223e-10
aF7.164355731529407e-11
aF4.728474782809409e-11
aF3.12079335665421e-11
aF2.0597236153917787e-11
aF1.359417586158574e-11
aF8.97215606864659e-12
aF5.9216230053067494e-12
aF3.908271183502455e-12
aF2.5794589811116205e-12
aF1.7024429275336696e-12
aF1.123612332172222e-12
aF7.415841392336666e-13
aF4.8944553189422e-13
aF3.230340510501852e-13
aF2.1320247369312224e-13
aF1.407136326374607e-13
aF9.287099754072407e-14
aF6.129485837687789e-14
aF4.045460652873941e-14
aF2.6700040308968012e-14
aF1.762202660391889e-14
aF1.1630537558586468e-14
aF7.67615478866707e-15
aF5.0662621605202664e-15
aF3.343733025943376e-15
aF2.2068637971226285e-15
aF1.4565301061009349e-15
aF9.61309870026617e-16
aF6.344645142175673e-16
aF4.187465793835944e-16
aF2.7637274239317235e-16
aF1.8240600997949375e-16
aF1.2038796658646588e-16
aF7.945605794706749e-17
aF5.2440998245064544e-17
aF3.46110588417426e-17
aF2.2843298835550116e-17
aF1.5076577231463076e-17
aF9.95054097276563e-18
aF6.567357042025316e-18
aF4.334455647736709e-18
aF2.8607407275062282e-18
aF1.8880888801541108e-18
aF1.2461386609017131e-18
aF8.224515161951307e-19
aF5.428180006887863e-19
aF3.58259880454599e-19
aF2.3645152110003534e-19
aF1.5605800392602333e-19
aF1.0299828259117541e-19
aF6.797886651017577e-20
aF4.486605189671601e-20
aF2.961159425183257e-20
aF1.9543652206209498e-20
aF1.2898810456098268e-20
aF8.513214901024857e-21
aF5.618721834676406e-21
aF3.708356410886428e-21
aF2.447515231185043e-21
aF1.6153600525821283e-21
aF1.0661376347042047e-21
aF7.036508389047752e-22
aF4.644095536771517e-22
aF3.065103054269201e-22
aF2.0229680158176727e-22
aF1.3351588904396642e-22
aF8.812048676901784e-23
aF5.815952126755178e-23
aF3.838528403658418e-23
aF2.533428746414556e-23
asS'np.linalg.norm(delta)'
p3
(lp4
cnumpy.core.multiarray
scalar
p5
(cnumpy
dtype
p6
(S'f4'
p7
I0
I1
tp8
Rp9
(I3
S'<'
p10
NNNI-1
I-1
I0
tp11
bS'\xd1\xe1\xa1?'
p12
tp13
Rp14
ag5
(g9
S'\xd9\xc5\xa2>'
p15
tp16
Rp17
ag5
(g9
S'\xee\xda\xb7>'
p18
tp19
Rp20
ag5
(g9
S'\xe8\xcc\x03?'
p21
tp22
Rp23
ag5
(g9
S'\x80\x179?'
p24
tp25
Rp26
ag5
(g9
S'0\xfas?'
p27
tp28
Rp29
ag5
(g9
S'\xde\x82\x88?'
p30
tp31
Rp32
ag5
(g9
S'<\x8a\x81?'
p33
tp34
Rp35
ag5
(g9
S'>K\xa1?'
p36
tp37
Rp38
ag5
(g9
S'\xeeU\x19@'
p39
tp40
Rp41
ag5
(g9
S'\x11<D@'
p42
tp43
Rp44
ag5
(g9
S'GHL@'
p45
tp46
Rp47
ag5
(g9
S'y\xff\x1b@'
p48
tp49
Rp50
ag5
(g9
S'#\xb9\x05@'
p51
tp52
Rp53
ag5
(g9
S'M(\xf0?'
p54
tp55
Rp56
ag5
(g9
S'\xfa\x80\xda?'
p57
tp58
Rp59
ag5
(g9
S'\xb2\xdd\xcb?'
p60
tp61
Rp62
ag5
(g9
S'\xc0\xb3\xc0?'
p63
tp64
Rp65
ag5
(g9
S'\x13\xc8\xb4?'
p66
tp67
Rp68
ag5
(g9
S'\x9b\xdf\xaa?'
p69
tp70
Rp71
ag5
(g9
S'R\xa2\xa1?'
p72
tp73
Rp74
ag5
(g9
S'\xec\xc7\x98?'
p75
tp76
Rp77
ag5
(g9
S'\n\x95\x8f?'
p78
tp79
Rp80
ag5
(g9
S'\\/\x87?'
p81
tp82
Rp83
ag5
(g9
S'\xaa;\x80?'
p84
tp85
Rp86
ag5
(g9
S'\xb8\x10l?'
p87
tp88
Rp89
ag5
(g9
S'\x15\xef_?'
p90
tp91
Rp92
ag5
(g9
S'9\x10R?'
p93
tp94
Rp95
ag5
(g9
S'\x03wE?'
p96
tp97
Rp98
ag5
(g9
S'\xf3q9?'
p99
tp100
Rp101
ag5
(g9
S'\xc97/?'
p102
tp103
Rp104
ag5
(g9
S'\x08{#?'
p105
tp106
Rp107
ag5
(g9
S'\x8d9\x1a?'
p108
tp109
Rp110
ag5
(g9
S'>r\x0f?'
p111
tp112
Rp113
ag5
(g9
S'\x98\xc4\x07?'
p114
tp115
Rp116
ag5
(g9
S'r(\xf9>'
p117
tp118
Rp119
ag5
(g9
S'8\xb9\xe0>'
p120
tp121
Rp122
ag5
(g9
S'\x91\x90\xd3>'
p123
tp124
Rp125
ag5
(g9
S'-\xec\xc7>'
p126
tp127
Rp128
ag5
(g9
S'\x9d)\xbd>'
p129
tp130
Rp131
ag5
(g9
S'\xb0V\xb3>'
p132
tp133
Rp134
ag5
(g9
S'\x15\x1b\xaa>'
p135
tp136
Rp137
ag5
(g9
S'\xdbz\xa1>'
p138
tp139
Rp140
ag5
(g9
S'\xcbK\x99>'
p141
tp142
Rp143
ag5
(g9
S'\xb4\x98\x91>'
p144
tp145
Rp146
ag5
(g9
S'jL\x8a>'
p147
tp148
Rp149
ag5
(g9
S'ba\x83>'
p150
tp151
Rp152
ag5
(g9
S'\xbb\xa1y>'
p153
tp154
Rp155
ag5
(g9
S'\x86+m>'
p156
tp157
Rp158
ag5
(g9
S'*Va>'
p159
tp160
Rp161
ag5
(g9
S'\xcb\x18V>'
p162
tp163
Rp164
ag5
(g9
S'VnK>'
p165
tp166
Rp167
ag5
(g9
S'\xe3IA>'
p168
tp169
Rp170
ag5
(g9
S'\x90\xaa7>'
p171
tp172
Rp173
ag5
(g9
S'\x8d\x85.>'
p174
tp175
Rp176
ag5
(g9
S'\xb1\xd8%>'
p177
tp178
Rp179
ag5
(g9
S'\xfa\x98\x1d>'
p180
tp181
Rp182
ag5
(g9
S'\xd2\xc5\x15>'
p183
tp184
Rp185
ag5
(g9
S'OW\x0e>'
p186
tp187
Rp188
ag5
(g9
S'\x16I\x07>'
p189
tp190
Rp191
ag5
(g9
S'\n\x94\x00>'
p192
tp193
Rp194
ag5
(g9
S'vx\xf4='
p195
tp196
Rp197
ag5
(g9
S'Y[\xe8='
p198
tp199
Rp200
ag5
(g9
S'K\x0c\xdd='
p201
tp202
Rp203
ag5
(g9
S'\xa6\x1d\xd2='
p204
tp205
Rp206
ag5
(g9
S'\x0c\xc1\xc7='
p207
tp208
Rp209
ag5
(g9
S'\x80\xe7\xbd='
p210
tp211
Rp212
ag5
(g9
S'\x94\x95\xb4='
p213
tp214
Rp215
ag5
(g9
S's\xac\xab='
p216
tp217
Rp218
ag5
(g9
S'\x159\xa3='
p219
tp220
Rp221
ag5
(g9
S'\xed/\x9b='
p222
tp223
Rp224
ag5
(g9
S'b\x9c\x93='
p225
tp226
Rp227
ag5
(g9
S'\xb5T\x8c='
p228
tp229
Rp230
ag5
(g9
S'\xb6o\x85='
p231
tp232
Rp233
ag5
(g9
S'\xc1\xb9}='
p234
tp235
Rp236
ag5
(g9
S'\xbeeq='
p237
tp238
Rp239
ag5
(g9
S'\xb2\x86e='
p240
tp241
Rp242
ag5
(g9
S'QXZ='
p243
tp244
Rp245
ag5
(g9
S'}\xa2O='
p246
tp247
Rp248
ag5
(g9
S'\xeb\x8bE='
p249
tp250
Rp251
ag5
(g9
S'B\xe1;='
p252
tp253
Rp254
ag5
(g9
S'8\xc82='
p255
tp256
Rp257
ag5
(g9
S'\xc3\x18*='
p258
tp259
Rp260
ag5
(g9
S'R\xdd!='
p261
tp262
Rp263
ag5
(g9
S'\xdf\x07\x1a='
p264
tp265
Rp266
ag5
(g9
S'\x86\xac\x12='
p267
tp268
Rp269
ag5
(g9
S'Y\xa3\x0b='
p270
tp271
Rp272
ag5
(g9
S'\x8e\xf3\x04='
p273
tp274
Rp275
ag5
(g9
S'Y\x1f\xfd<'
p276
tp277
Rp278
ag5
(g9
S'\xa8C\xf1<'
p279
tp280
Rp281
ag5
(g9
S'f\xe8\xe5<'
p282
tp283
Rp284
ag5
(g9
S'(\xfe\xda<'
p285
tp286
Rp287
ag5
(g9
S'#\xab\xd0<'
p288
tp289
Rp290
ag5
(g9
S'"?\xc7<'
p291
tp292
Rp293
ag5
(g9
S';\xfc\xbd<'
p294
tp295
Rp296
ag5
(g9
S'\xd9)\xb5<'
p297
tp298
Rp299
ag5
(g9
S'\xfc\xce\xac<'
p300
tp301
Rp302
ag5
(g9
S'`G\xa5<'
p303
tp304
Rp305
ag5
(g9
S'\xdb\xa6\x9d<'
p306
tp307
Rp308
ag5
(g9
S'#\xf1\x96<'
p309
tp310
Rp311
ag5
(g9
S'\xac$\x90<'
p312
tp313
Rp314
ag5
(g9
S'G\x9c\x89<'
p315
tp316
Rp317
ag5
(g9
S'\xc4\xa0\x83<'
p318
tp319
Rp320
ag5
(g9
S'd\xb0{<'
p321
tp322
Rp323
ag5
(g9
S'\xf2\x02q<'
p324
tp325
Rp326
ag5
(g9
S'\x9d}f<'
p327
tp328
Rp329
ag5
(g9
S'$\xfb^<'
p330
tp331
Rp332
ag5
(g9
S'{QU<'
p333
tp334
Rp335
ag5
(g9
S'C<L<'
p336
tp337
Rp338
ag5
(g9
S'\x0b#D<'
p339
tp340
Rp341
ag5
(g9
S'{#<<'
p342
tp343
Rp344
ag5
(g9
S'\x93\xd04<'
p345
tp346
Rp347
ag5
(g9
S'\x93\xbe-<'
p348
tp349
Rp350
ag5
(g9
S"\xaa\xc7'<"
p351
tp352
Rp353
ag5
(g9
S'\x1a\xed <'
p354
tp355
Rp356
ag5
(g9
S'\xdd{\x1b<'
p357
tp358
Rp359
ag5
(g9
S'T|\x15<'
p360
tp361
Rp362
ag5
(g9
S'\x18\x89\x12<'
p363
tp364
Rp365
ag5
(g9
S'\xb9\xbb\x0c<'
p366
tp367
Rp368
ag5
(g9
S'c\xbb\x07<'
p369
tp370
Rp371
ag5
(g9
S'\xa7\xd0\x02<'
p372
tp373
Rp374
ag5
(g9
S'\xadr\xfc;'
p375
tp376
Rp377
ag5
(g9
S'\x9c\xad\xf4;'
p378
tp379
Rp380
ag5
(g9
S'{*\xec;'
p381
tp382
Rp383
ag5
(g9
S'\x173\xe6;'
p384
tp385
Rp386
ag5
(g9
S'"\x8e\xde;'
p387
tp388
Rp389
ag5
(g9
S'\x87\t\xdc;'
p390
tp391
Rp392
ag5
(g9
S'\xb3\xc4\xd4;'
p393
tp394
Rp395
ag5
(g9
S'\x0b\x03\xce;'
p396
tp397
Rp398
ag5
(g9
S'i\x90\xc8;'
p399
tp400
Rp401
ag5
(g9
S'\xc7\xa1\xc2;'
p402
tp403
Rp404
ag5
(g9
S'\xf5O\xbd;'
p405
tp406
Rp407
ag5
(g9
S'\x00\xf3\xb7;'
p408
tp409
Rp410
ag5
(g9
S'\n\x1e\xb4;'
p411
tp412
Rp413
ag5
(g9
S'\x00-\xaf;'
p414
tp415
Rp416
ag5
(g9
S'\xcdB\xad;'
p417
tp418
Rp419
ag5
(g9
S'\x0e&\xa8;'
p420
tp421
Rp422
ag5
(g9
S'^\xa2\xa3;'
p423
tp424
Rp425
ag5
(g9
S'Qv\x9f;'
p426
tp427
Rp428
ag5
(g9
S'\xc1\x01\x9d;'
p429
tp430
Rp431
ag5
(g9
S'\x0e\xcc\x98;'
p432
tp433
Rp434
ag5
(g9
S'\x8e#\x96;'
p435
tp436
Rp437
ag5
(g9
S'\xc9@\x92;'
p438
tp439
Rp440
ag5
(g9
S'\x00Q\x94;'
p441
tp442
Rp443
ag5
(g9
S'\xc2M\x91;'
p444
tp445
Rp446
ag5
(g9
S'\x80\x19\x8e;'
p447
tp448
Rp449
ag5
(g9
S'\x1dh\x8b;'
p450
tp451
Rp452
ag5
(g9
S'\xad\xe6\x88;'
p453
tp454
Rp455
ag5
(g9
S'\x03\xee\x85;'
p456
tp457
Rp458
ag5
(g9
S'\xa8\x16\x87;'
p459
tp460
Rp461
ag5
(g9
S'\x1e\x9e\x83;'
p462
tp463
Rp464
asS'new_err'
p465
(lp466
g5
(g6
(S'f8'
p467
I0
I1
tp468
Rp469
(I3
S'<'
p470
NNNI-1
I-1
I0
tp471
bS'\xb7m\xdb\xb6\xd5\xf8\x05@'
p472
tp473
Rp474
ag5
(g469
S'%I\x92$T\xe7\x04@'
p475
tp476
Rp477
ag5
(g469
S'\x92$I\x92\x05\\\x04@'
p478
tp479
Rp480
ag5
(g469
S'I\x92$IH\x80\x03@'
p481
tp482
Rp483
ag5
(g469
S'n\xdb\xb6mz@\x02@'
p484
tp485
Rp486
ag5
(g469
S'I\x92$I\xea\xc4\x00@'
p487
tp488
Rp489
ag5
(g469
S'\x00\x00\x00\x00(\xc9\xfe?'
p490
tp491
Rp492
ag5
(g469
S'I\x92$I\x06!\xfd?'
p493
tp494
Rp495
ag5
(g469
S'\x92$I\x92h\xf7\xfa?'
p496
tp497
Rp498
ag5
(g469
S'\xb7m\xdb\xb6\x8f\x9a\xf2?'
p499
tp500
Rp501
ag5
(g469
S'I\x92$\xc9\x8bH\xe2?'
p502
tp503
Rp504
ag5
(g469
S'n\xdb\xb6m\xe5\xa8\xc4?'
p505
tp506
Rp507
ag5
(g469
S'\x00\x00\x00\x00\xdb}\xa6?'
p508
tp509
Rp510
ag5
(g469
S'%I\x92$\xfe\xac\x88?'
p511
tp512
Rp513
ag5
(g469
S'\xdb\xb6m\xdb\rir?'
p514
tp515
Rp516
ag5
(g469
S'\xb7m\xdb\xb6\xa8]f?'
p517
tp518
Rp519
ag5
(g469
S'%I\x92$l\xa0_?'
p520
tp521
Rp522
ag5
(g469
S'I\x92$I\xb2\x8f[?'
p523
tp524
Rp525
ag5
(g469
S'\x92$I\x92\xa1\x07W?'
p526
tp527
Rp528
ag5
(g469
S'\x92$I\x92\x06\x10U?'
p529
tp530
Rp531
ag5
(g469
S'\xdb\xb6m\xdb\xc3\x81T?'
p532
tp533
Rp534
ag5
(g469
S'\xdb\xb6m\xdb!\xd0S?'
p535
tp536
Rp537
ag5
(g469
S'\x92$I\x92\xb6vS?'
p538
tp539
Rp540
ag5
(g469
S'\xb7m\xdb\xb6i%S?'
p541
tp542
Rp543
ag5
(g469
S'I\x92$I\xdc\x0fS?'
p544
tp545
Rp546
ag5
(g469
S'%I\x92$n\xa3R?'
p547
tp548
Rp549
ag5
(g469
S'I\x92$Il+R?'
p550
tp551
Rp552
ag5
(g469
S'I\x92$\xc9^\xbbQ?'
p553
tp554
Rp555
ag5
(g469
S'\xdb\xb6m[\xb9\xb1Q?'
p556
tp557
Rp558
ag5
(g469
S'%I\x92$\x1e3Q?'
p559
tp560
Rp561
ag5
(g469
S'\x00\x00\x00\x00\x1e\xcfP?'
p562
tp563
Rp564
ag5
(g469
S'\xdb\xb6m\xdbT\xafP?'
p565
tp566
Rp567
ag5
(g469
S'\xb7m\xdb\xb6\xf0WP?'
p568
tp569
Rp570
ag5
(g469
S'\x92$I\x92\xc0=P?'
p571
tp572
Rp573
ag5
(g469
S'n\xdb\xb6m",P?'
p574
tp575
Rp576
ag5
(g469
S'%I\x92$\xd8(P?'
p577
tp578
Rp579
ag5
(g469
S'n\xdb\xb6m\x81\xfbO?'
p580
tp581
Rp582
ag5
(g469
S'%I\x92$\xfepO?'
p583
tp584
Rp585
ag5
(g469
S'\xdb\xb6m\xdb\x0e\xd4N?'
p586
tp587
Rp588
ag5
(g469
S'n\xdb\xb6mg\x15N?'
p589
tp590
Rp591
ag5
(g469
S'I\x92$I+>M?'
p592
tp593
Rp594
ag5
(g469
S'\x92$I\x92irL?'
p595
tp596
Rp597
ag5
(g469
S'\xb7m\xdb\xb6(\x94K?'
p598
tp599
Rp600
ag5
(g469
S'I\x92$I\x02\xcbJ?'
p601
tp602
Rp603
ag5
(g469
S'\xb7m\xdb\xb6\x9f\xebI?'
p604
tp605
Rp606
ag5
(g469
S'n\xdb\xb6mY3I?'
p607
tp608
Rp609
ag5
(g469
S'\xdb\xb6m\xdb\xdd|H?'
p610
tp611
Rp612
ag5
(g469
S'\xdb\xb6m\xdb\xf3\xe2G?'
p613
tp614
Rp615
ag5
(g469
S'\x92$I\x92^DG?'
p616
tp617
Rp618
ag5
(g469
S'\x92$I\x92\xcf\xb1F?'
p619
tp620
Rp621
ag5
(g469
S'%I\x92$\xba$F?'
p622
tp623
Rp624
ag5
(g469
S'\x00\x00\x00\x00*\xa1E?'
p625
tp626
Rp627
ag5
(g469
S'\xb7m\xdb\xb6v\x18E?'
p628
tp629
Rp630
ag5
(g469
S'\xb7m\xdb\xb6-\x98D?'
p631
tp632
Rp633
ag5
(g469
S'\xdb\xb6m\xdb\xa1\x18D?'
p634
tp635
Rp636
ag5
(g469
S'I\x92$Ix\x94C?'
p637
tp638
Rp639
ag5
(g469
S'I\x92$I\x08\x0eC?'
p640
tp641
Rp642
ag5
(g469
S'\xdb\xb6m\xdbf\x87B?'
p643
tp644
Rp645
ag5
(g469
S'\xb7m\xdb6\xec\xfdA?'
p646
tp647
Rp648
ag5
(g469
S'\x00\x00\x00\x80xtA?'
p649
tp650
Rp651
ag5
(g469
S'%I\x92\xa4\xfd\xec@?'
p652
tp653
Rp654
ag5
(g469
S'%I\x92$\xa2a@?'
p655
tp656
Rp657
ag5
(g469
S'\x00\x00\x00\x00\xac\xae??'
p658
tp659
Rp660
ag5
(g469
S'\x92$I\x92\xb6\x92>?'
p661
tp662
Rp663
ag5
(g469
S'\x00\x00\x00\x00\xfab=?'
p664
tp665
Rp666
ag5
(g469
S'\xb7m\xdb\xb6\xaeY<?'
p667
tp668
Rp669
ag5
(g469
S'\x92$I\x92:c;?'
p670
tp671
Rp672
ag5
(g469
S'\x92$I\x92\xa1y:?'
p673
tp674
Rp675
ag5
(g469
S'\xb7m\xdb\xb6\x00\xa19?'
p676
tp677
Rp678
ag5
(g469
S'\xdb\xb6m\xdb\xbf\xda8?'
p679
tp680
Rp681
ag5
(g469
S'\xdb\xb6m\xdb,$8?'
p682
tp683
Rp684
ag5
(g469
S'\xdb\xb6m\xdb\x99u7?'
p685
tp686
Rp687
ag5
(g469
S'n\xdb\xb6m\xc3\xce6?'
p688
tp689
Rp690
ag5
(g469
S'\x00\x00\x00\x00\x8386?'
p691
tp692
Rp693
ag5
(g469
S'I\x92$IG\xab5?'
p694
tp695
Rp696
ag5
(g469
S'%I\x92$\x1c$5?'
p697
tp698
Rp699
ag5
(g469
S'\x00\x00\x00\x00\x08\x9d4?'
p700
tp701
Rp702
ag5
(g469
S'n\xdb\xb6m\xc2\x1e4?'
p703
tp704
Rp705
ag5
(g469
S'I\x92$I\x18\xa63?'
p706
tp707
Rp708
ag5
(g469
S'\xdb\xb6m\xdbJ23?'
p709
tp710
Rp711
ag5
(g469
S'n\xdb\xb6m\xa6\xc12?'
p712
tp713
Rp714
ag5
(g469
S'%I\x92$\xd0U2?'
p715
tp716
Rp717
ag5
(g469
S'n\xdb\xb6\xed`\xeb1?'
p718
tp719
Rp720
ag5
(g469
S'%I\x92$\x0e\x861?'
p721
tp722
Rp723
ag5
(g469
S'\x92$I\x12R#1?'
p724
tp725
Rp726
ag5
(g469
S'\xb7m\xdb6\x8d\xc30?'
p727
tp728
Rp729
ag5
(g469
S'\xb7m\xdb\xb6\xdad0?'
p730
tp731
Rp732
ag5
(g469
S'I\x92$I\xea\t0?'
p733
tp734
Rp735
ag5
(g469
S'\xb7m\xdb\xb6\x8de/?'
p736
tp737
Rp738
ag5
(g469
S'\x00\x00\x00\x00\xea\xbc.?'
p739
tp740
Rp741
ag5
(g469
S'\x92$I\x92\x97\x14.?'
p742
tp743
Rp744
ag5
(g469
S'\xdb\xb6m\xdb9s-?'
p745
tp746
Rp747
ag5
(g469
S'\x92$I\x92\n\xda,?'
p748
tp749
Rp750
ag5
(g469
S'%I\x92$aC,?'
p751
tp752
Rp753
ag5
(g469
S'n\xdb\xb6m\x98\xac+?'
p754
tp755
Rp756
ag5
(g469
S'%I\x92$K\x1e+?'
p757
tp758
Rp759
ag5
(g469
S'%I\x92$\xfb\x95*?'
p760
tp761
Rp762
ag5
(g469
S'\x00\x00\x00\x00\x87\x0f*?'
p763
tp764
Rp765
ag5
(g469
S'%I\x92$L\x8a)?'
p766
tp767
Rp768
ag5
(g469
S'\x92$I\x92$\x0b)?'
p769
tp770
Rp771
ag5
(g469
S'\xdb\xb6m\xdb\xe9\x8b(?'
p772
tp773
Rp774
ag5
(g469
S'\x92$I\x92L\x14(?'
p775
tp776
Rp777
ag5
(g469
S"\x92$I\x92b\xa1'?"
p778
tp779
Rp780
ag5
(g469
S"%I\x92$\xc90'?"
p781
tp782
Rp783
ag5
(g469
S'I\x92$I\x1e\xc4&?'
p784
tp785
Rp786
ag5
(g469
S'\xdb\xb6m\xdbRZ&?'
p787
tp788
Rp789
ag5
(g469
S'\xdb\xb6m\xdb\xf7\xf0%?'
p790
tp791
Rp792
ag5
(g469
S'n\xdb\xb6m\x89\x84%?'
p793
tp794
Rp795
ag5
(g469
S'\x00\x00\x00\x00\xa2!%?'
p796
tp797
Rp798
ag5
(g469
S'\x92$I\x92+\xc2$?'
p799
tp800
Rp801
ag5
(g469
S'%I\x92$\xcce$?'
p802
tp803
Rp804
ag5
(g469
S'%I\x92$<\r$?'
p805
tp806
Rp807
ag5
(g469
S'\xb7m\xdb\xb6\xb1\xb7#?'
p808
tp809
Rp810
ag5
(g469
S'I\x92$I\xcad#?'
p811
tp812
Rp813
ag5
(g469
S'\xdb\xb6m\xdb6\x14#?'
p814
tp815
Rp816
ag5
(g469
S'\xb7m\xdb\xb6z\xc7"?'
p817
tp818
Rp819
ag5
(g469
S'\xdb\xb6m\xdbr|"?'
p820
tp821
Rp822
ag5
(g469
S'\xb7m\xdb6\xa22"?'
p823
tp824
Rp825
ag5
(g469
S'I\x92$\xc9\xc3\xe7!?'
p826
tp827
Rp828
ag5
(g469
S'\xdb\xb6m[r\xa2!?'
p829
tp830
Rp831
ag5
(g469
S'\xdb\xb6m[\x9a_!?'
p832
tp833
Rp834
ag5
(g469
S'%I\x92\xa4Z\x1f!?'
p835
tp836
Rp837
ag5
(g469
S'\x00\x00\x00\x80\xfc\xe0 ?'
p838
tp839
Rp840
ag5
(g469
S'\xb7m\xdb\xb6.\xa4 ?'
p841
tp842
Rp843
ag5
(g469
S'\x92$I\x92Li ?'
p844
tp845
Rp846
ag5
(g469
S'\xb7m\xdb\xb6#/ ?'
p847
tp848
Rp849
ag5
(g469
S'\xb7m\xdb\xb6r\xec\x1f?'
p850
tp851
Rp852
ag5
(g469
S'\x00\x00\x00\x00$y\x1f?'
p853
tp854
Rp855
ag5
(g469
S'\xb7m\xdb\xb6\x1a\r\x1f?'
p856
tp857
Rp858
ag5
(g469
S'n\xdb\xb6mL\xa4\x1e?'
p859
tp860
Rp861
ag5
(g469
S'\x92$I\x92\xfc=\x1e?'
p862
tp863
Rp864
ag5
(g469
S'%I\x92$M\xdb\x1d?'
p865
tp866
Rp867
ag5
(g469
S'I\x92$Iz{\x1d?'
p868
tp869
Rp870
ag5
(g469
S'\xb7m\xdb\xb6\x07\x1e\x1d?'
p871
tp872
Rp873
ag5
(g469
S'\x00\x00\x00\x00t\xc2\x1c?'
p874
tp875
Rp876
ag5
(g469
S'%I\x92$\xefh\x1c?'
p877
tp878
Rp879
ag5
(g469
S'\x92$I\x92\x13\x10\x1c?'
p880
tp881
Rp882
ag5
(g469
S'%I\x92$\xad\xbb\x1b?'
p883
tp884
Rp885
ag5
(g469
S'n\xdb\xb6m\xd6i\x1b?'
p886
tp887
Rp888
ag5
(g469
S'\xdb\xb6m\xdb\xcc\x19\x1b?'
p889
tp890
Rp891
ag5
(g469
S'\xdb\xb6m\xdb)\xcb\x1a?'
p892
tp893
Rp894
ag5
(g469
S'\x92$I\x92Y\x7f\x1a?'
p895
tp896
Rp897
ag5
(g469
S'\x00\x00\x00\x0035\x1a?'
p898
tp899
Rp900
ag5
(g469
S'n\xdb\xb6m\xc2\xeb\x19?'
p901
tp902
Rp903
ag5
(g469
S'\x00\x00\x00\x00\xa1\xa0\x19?'
p904
tp905
Rp906
ag5
(g469
S'\x92$I\x92\x96Y\x19?'
p907
tp908
Rp909
ag5
(g469
S'n\xdb\xb6m\xb6\x14\x19?'
p910
tp911
Rp912
ag5
(g469
S'%I\x92$\x88\xd1\x18?'
p913
tp914
Rp915
ag5
(g469
S'\x00\x00\x00\x00K\x90\x18?'
p916
tp917
Rp918
ag5
(g469
S'\xb7m\xdb\xb6\xffO\x18?'
p919
tp920
Rp921
ag5
(g469
S'\x92$I\x92|\x0f\x18?'
p922
tp923
Rp924
asS'l_rate'
p925
(lp926
F1.0
aF1.0
aF1.0
aF1.0
aF1.0
aF1.0
aF1.0
aF1.0
aF1.0
aF1.0
aF1.0
aF1.0
aF1.0
aF1.0
aF1.0
aF1.0
aF1.0
aF1.0
aF1.0
aF1.0
aF1.0
aF0.8
aF0.8
aF0.8
aF0.5120000000000001
aF1.0
aF1.0
aF0.8
aF1.0
aF1.0
aF1.0
aF1.0
aF1.0
aF0.8
aF0.8
aF0.6400000000000001
aF1.0
aF1.0
aF1.0
aF1.0
aF1.0
aF1.0
aF1.0
aF1.0
aF1.0
aF1.0
aF1.0
aF1.0
aF1.0
aF1.0
aF1.0
aF1.0
aF1.0
aF1.0
aF1.0
aF1.0
aF1.0
aF1.0
aF1.0
aF1.0
aF1.0
aF1.0
aF1.0
aF1.0
aF1.0
aF1.0
aF1.0
aF1.0
aF1.0
aF1.0
aF1.0
aF1.0
aF1.0
aF1.0
aF1.0
aF1.0
aF1.0
aF1.0
aF1.0
aF1.0
aF1.0
aF1.0
aF1.0
aF1.0
aF1.0
aF1.0
aF1.0
aF1.0
aF1.0
aF1.0
aF1.0
aF1.0
aF1.0
aF1.0
aF1.0
aF1.0
aF1.0
aF1.0
aF1.0
aF1.0
aF1.0
aF1.0
aF1.0
aF1.0
aF1.0
aF1.0
aF1.0
aF1.0
aF1.0
aF1.0
aF1.0
aF1.0
aF1.0
aF1.0
aF1.0
aF1.0
aF1.0
aF1.0
aF1.0
aF1.0
aF1.0
aF1.0
aF1.0
aF1.0
aF1.0
aF1.0
aF1.0
aF1.0
aF1.0
aF1.0
aF1.0
aF1.0
aF1.0
aF1.0
aF1.0
aF1.0
aF1.0
aF1.0
aF1.0
aF1.0
aF1.0
aF1.0
aF1.0
aF1.0
aF1.0
aF1.0
aF1.0
aF1.0
aF1.0
aF1.0
aF1.0
asS'test_errs[-1]'
p927
(lp928
g5
(g469
S'\xb7m\xdb\xb6\xd5\xf8\x05@'
p929
tp930
Rp931
ag5
(g469
S'%I\x92$T\xe7\x04@'
p932
tp933
Rp934
ag5
(g469
S'\x92$I\x92\x05\\\x04@'
p935
tp936
Rp937
ag5
(g469
S'I\x92$IH\x80\x03@'
p938
tp939
Rp940
ag5
(g469
S'n\xdb\xb6mz@\x02@'
p941
tp942
Rp943
ag5
(g469
S'I\x92$I\xea\xc4\x00@'
p944
tp945
Rp946
ag5
(g469
S'\x00\x00\x00\x00(\xc9\xfe?'
p947
tp948
Rp949
ag5
(g469
S'I\x92$I\x06!\xfd?'
p950
tp951
Rp952
ag5
(g469
S'\x92$I\x92h\xf7\xfa?'
p953
tp954
Rp955
ag5
(g469
S'\xb7m\xdb\xb6\x8f\x9a\xf2?'
p956
tp957
Rp958
ag5
(g469
S'I\x92$\xc9\x8bH\xe2?'
p959
tp960
Rp961
ag5
(g469
S'n\xdb\xb6m\xe5\xa8\xc4?'
p962
tp963
Rp964
ag5
(g469
S'\x00\x00\x00\x00\xdb}\xa6?'
p965
tp966
Rp967
ag5
(g469
S'%I\x92$\xfe\xac\x88?'
p968
tp969
Rp970
ag5
(g469
S'\xdb\xb6m\xdb\rir?'
p971
tp972
Rp973
ag5
(g469
S'\xb7m\xdb\xb6\xa8]f?'
p974
tp975
Rp976
ag5
(g469
S'%I\x92$l\xa0_?'
p977
tp978
Rp979
ag5
(g469
S'I\x92$I\xb2\x8f[?'
p980
tp981
Rp982
ag5
(g469
S'\x92$I\x92\xa1\x07W?'
p983
tp984
Rp985
ag5
(g469
S'\x92$I\x92\x06\x10U?'
p986
tp987
Rp988
ag5
(g469
S'\xdb\xb6m\xdb\xc3\x81T?'
p989
tp990
Rp991
ag5
(g469
S'\xdb\xb6m\xdb!\xd0S?'
p992
tp993
Rp994
ag5
(g469
S'\x92$I\x92\xb6vS?'
p995
tp996
Rp997
ag5
(g469
S'\xb7m\xdb\xb6i%S?'
p998
tp999
Rp1000
ag5
(g469
S'I\x92$I\xdc\x0fS?'
p1001
tp1002
Rp1003
ag5
(g469
S'%I\x92$n\xa3R?'
p1004
tp1005
Rp1006
ag5
(g469
S'I\x92$Il+R?'
p1007
tp1008
Rp1009
ag5
(g469
S'I\x92$\xc9^\xbbQ?'
p1010
tp1011
Rp1012
ag5
(g469
S'\xdb\xb6m[\xb9\xb1Q?'
p1013
tp1014
Rp1015
ag5
(g469
S'%I\x92$\x1e3Q?'
p1016
tp1017
Rp1018
ag5
(g469
S'\x00\x00\x00\x00\x1e\xcfP?'
p1019
tp1020
Rp1021
ag5
(g469
S'\xdb\xb6m\xdbT\xafP?'
p1022
tp1023
Rp1024
ag5
(g469
S'\xb7m\xdb\xb6\xf0WP?'
p1025
tp1026
Rp1027
ag5
(g469
S'\x92$I\x92\xc0=P?'
p1028
tp1029
Rp1030
ag5
(g469
S'n\xdb\xb6m",P?'
p1031
tp1032
Rp1033
ag5
(g469
S'%I\x92$\xd8(P?'
p1034
tp1035
Rp1036
ag5
(g469
S'n\xdb\xb6m\x81\xfbO?'
p1037
tp1038
Rp1039
ag5
(g469
S'%I\x92$\xfepO?'
p1040
tp1041
Rp1042
ag5
(g469
S'\xdb\xb6m\xdb\x0e\xd4N?'
p1043
tp1044
Rp1045
ag5
(g469
S'n\xdb\xb6mg\x15N?'
p1046
tp1047
Rp1048
ag5
(g469
S'I\x92$I+>M?'
p1049
tp1050
Rp1051
ag5
(g469
S'\x92$I\x92irL?'
p1052
tp1053
Rp1054
ag5
(g469
S'\xb7m\xdb\xb6(\x94K?'
p1055
tp1056
Rp1057
ag5
(g469
S'I\x92$I\x02\xcbJ?'
p1058
tp1059
Rp1060
ag5
(g469
S'\xb7m\xdb\xb6\x9f\xebI?'
p1061
tp1062
Rp1063
ag5
(g469
S'n\xdb\xb6mY3I?'
p1064
tp1065
Rp1066
ag5
(g469
S'\xdb\xb6m\xdb\xdd|H?'
p1067
tp1068
Rp1069
ag5
(g469
S'\xdb\xb6m\xdb\xf3\xe2G?'
p1070
tp1071
Rp1072
ag5
(g469
S'\x92$I\x92^DG?'
p1073
tp1074
Rp1075
ag5
(g469
S'\x92$I\x92\xcf\xb1F?'
p1076
tp1077
Rp1078
ag5
(g469
S'%I\x92$\xba$F?'
p1079
tp1080
Rp1081
ag5
(g469
S'\x00\x00\x00\x00*\xa1E?'
p1082
tp1083
Rp1084
ag5
(g469
S'\xb7m\xdb\xb6v\x18E?'
p1085
tp1086
Rp1087
ag5
(g469
S'\xb7m\xdb\xb6-\x98D?'
p1088
tp1089
Rp1090
ag5
(g469
S'\xdb\xb6m\xdb\xa1\x18D?'
p1091
tp1092
Rp1093
ag5
(g469
S'I\x92$Ix\x94C?'
p1094
tp1095
Rp1096
ag5
(g469
S'I\x92$I\x08\x0eC?'
p1097
tp1098
Rp1099
ag5
(g469
S'\xdb\xb6m\xdbf\x87B?'
p1100
tp1101
Rp1102
ag5
(g469
S'\xb7m\xdb6\xec\xfdA?'
p1103
tp1104
Rp1105
ag5
(g469
S'\x00\x00\x00\x80xtA?'
p1106
tp1107
Rp1108
ag5
(g469
S'%I\x92\xa4\xfd\xec@?'
p1109
tp1110
Rp1111
ag5
(g469
S'%I\x92$\xa2a@?'
p1112
tp1113
Rp1114
ag5
(g469
S'\x00\x00\x00\x00\xac\xae??'
p1115
tp1116
Rp1117
ag5
(g469
S'\x92$I\x92\xb6\x92>?'
p1118
tp1119
Rp1120
ag5
(g469
S'\x00\x00\x00\x00\xfab=?'
p1121
tp1122
Rp1123
ag5
(g469
S'\xb7m\xdb\xb6\xaeY<?'
p1124
tp1125
Rp1126
ag5
(g469
S'\x92$I\x92:c;?'
p1127
tp1128
Rp1129
ag5
(g469
S'\x92$I\x92\xa1y:?'
p1130
tp1131
Rp1132
ag5
(g469
S'\xb7m\xdb\xb6\x00\xa19?'
p1133
tp1134
Rp1135
ag5
(g469
S'\xdb\xb6m\xdb\xbf\xda8?'
p1136
tp1137
Rp1138
ag5
(g469
S'\xdb\xb6m\xdb,$8?'
p1139
tp1140
Rp1141
ag5
(g469
S'\xdb\xb6m\xdb\x99u7?'
p1142
tp1143
Rp1144
ag5
(g469
S'n\xdb\xb6m\xc3\xce6?'
p1145
tp1146
Rp1147
ag5
(g469
S'\x00\x00\x00\x00\x8386?'
p1148
tp1149
Rp1150
ag5
(g469
S'I\x92$IG\xab5?'
p1151
tp1152
Rp1153
ag5
(g469
S'%I\x92$\x1c$5?'
p1154
tp1155
Rp1156
ag5
(g469
S'\x00\x00\x00\x00\x08\x9d4?'
p1157
tp1158
Rp1159
ag5
(g469
S'n\xdb\xb6m\xc2\x1e4?'
p1160
tp1161
Rp1162
ag5
(g469
S'I\x92$I\x18\xa63?'
p1163
tp1164
Rp1165
ag5
(g469
S'\xdb\xb6m\xdbJ23?'
p1166
tp1167
Rp1168
ag5
(g469
S'n\xdb\xb6m\xa6\xc12?'
p1169
tp1170
Rp1171
ag5
(g469
S'%I\x92$\xd0U2?'
p1172
tp1173
Rp1174
ag5
(g469
S'n\xdb\xb6\xed`\xeb1?'
p1175
tp1176
Rp1177
ag5
(g469
S'%I\x92$\x0e\x861?'
p1178
tp1179
Rp1180
ag5
(g469
S'\x92$I\x12R#1?'
p1181
tp1182
Rp1183
ag5
(g469
S'\xb7m\xdb6\x8d\xc30?'
p1184
tp1185
Rp1186
ag5
(g469
S'\xb7m\xdb\xb6\xdad0?'
p1187
tp1188
Rp1189
ag5
(g469
S'I\x92$I\xea\t0?'
p1190
tp1191
Rp1192
ag5
(g469
S'\xb7m\xdb\xb6\x8de/?'
p1193
tp1194
Rp1195
ag5
(g469
S'\x00\x00\x00\x00\xea\xbc.?'
p1196
tp1197
Rp1198
ag5
(g469
S'\x92$I\x92\x97\x14.?'
p1199
tp1200
Rp1201
ag5
(g469
S'\xdb\xb6m\xdb9s-?'
p1202
tp1203
Rp1204
ag5
(g469
S'\x92$I\x92\n\xda,?'
p1205
tp1206
Rp1207
ag5
(g469
S'%I\x92$aC,?'
p1208
tp1209
Rp1210
ag5
(g469
S'n\xdb\xb6m\x98\xac+?'
p1211
tp1212
Rp1213
ag5
(g469
S'%I\x92$K\x1e+?'
p1214
tp1215
Rp1216
ag5
(g469
S'%I\x92$\xfb\x95*?'
p1217
tp1218
Rp1219
ag5
(g469
S'\x00\x00\x00\x00\x87\x0f*?'
p1220
tp1221
Rp1222
ag5
(g469
S'%I\x92$L\x8a)?'
p1223
tp1224
Rp1225
ag5
(g469
S'\x92$I\x92$\x0b)?'
p1226
tp1227
Rp1228
ag5
(g469
S'\xdb\xb6m\xdb\xe9\x8b(?'
p1229
tp1230
Rp1231
ag5
(g469
S'\x92$I\x92L\x14(?'
p1232
tp1233
Rp1234
ag5
(g469
S"\x92$I\x92b\xa1'?"
p1235
tp1236
Rp1237
ag5
(g469
S"%I\x92$\xc90'?"
p1238
tp1239
Rp1240
ag5
(g469
S'I\x92$I\x1e\xc4&?'
p1241
tp1242
Rp1243
ag5
(g469
S'\xdb\xb6m\xdbRZ&?'
p1244
tp1245
Rp1246
ag5
(g469
S'\xdb\xb6m\xdb\xf7\xf0%?'
p1247
tp1248
Rp1249
ag5
(g469
S'n\xdb\xb6m\x89\x84%?'
p1250
tp1251
Rp1252
ag5
(g469
S'\x00\x00\x00\x00\xa2!%?'
p1253
tp1254
Rp1255
ag5
(g469
S'\x92$I\x92+\xc2$?'
p1256
tp1257
Rp1258
ag5
(g469
S'%I\x92$\xcce$?'
p1259
tp1260
Rp1261
ag5
(g469
S'%I\x92$<\r$?'
p1262
tp1263
Rp1264
ag5
(g469
S'\xb7m\xdb\xb6\xb1\xb7#?'
p1265
tp1266
Rp1267
ag5
(g469
S'I\x92$I\xcad#?'
p1268
tp1269
Rp1270
ag5
(g469
S'\xdb\xb6m\xdb6\x14#?'
p1271
tp1272
Rp1273
ag5
(g469
S'\xb7m\xdb\xb6z\xc7"?'
p1274
tp1275
Rp1276
ag5
(g469
S'\xdb\xb6m\xdbr|"?'
p1277
tp1278
Rp1279
ag5
(g469
S'\xb7m\xdb6\xa22"?'
p1280
tp1281
Rp1282
ag5
(g469
S'I\x92$\xc9\xc3\xe7!?'
p1283
tp1284
Rp1285
ag5
(g469
S'\xdb\xb6m[r\xa2!?'
p1286
tp1287
Rp1288
ag5
(g469
S'\xdb\xb6m[\x9a_!?'
p1289
tp1290
Rp1291
ag5
(g469
S'%I\x92\xa4Z\x1f!?'
p1292
tp1293
Rp1294
ag5
(g469
S'\x00\x00\x00\x80\xfc\xe0 ?'
p1295
tp1296
Rp1297
ag5
(g469
S'\xb7m\xdb\xb6.\xa4 ?'
p1298
tp1299
Rp1300
ag5
(g469
S'\x92$I\x92Li ?'
p1301
tp1302
Rp1303
ag5
(g469
S'\xb7m\xdb\xb6#/ ?'
p1304
tp1305
Rp1306
ag5
(g469
S'\xb7m\xdb\xb6r\xec\x1f?'
p1307
tp1308
Rp1309
ag5
(g469
S'\x00\x00\x00\x00$y\x1f?'
p1310
tp1311
Rp1312
ag5
(g469
S'\xb7m\xdb\xb6\x1a\r\x1f?'
p1313
tp1314
Rp1315
ag5
(g469
S'n\xdb\xb6mL\xa4\x1e?'
p1316
tp1317
Rp1318
ag5
(g469
S'\x92$I\x92\xfc=\x1e?'
p1319
tp1320
Rp1321
ag5
(g469
S'%I\x92$M\xdb\x1d?'
p1322
tp1323
Rp1324
ag5
(g469
S'I\x92$Iz{\x1d?'
p1325
tp1326
Rp1327
ag5
(g469
S'\xb7m\xdb\xb6\x07\x1e\x1d?'
p1328
tp1329
Rp1330
ag5
(g469
S'\x00\x00\x00\x00t\xc2\x1c?'
p1331
tp1332
Rp1333
ag5
(g469
S'%I\x92$\xefh\x1c?'
p1334
tp1335
Rp1336
ag5
(g469
S'\x92$I\x92\x13\x10\x1c?'
p1337
tp1338
Rp1339
ag5
(g469
S'%I\x92$\xad\xbb\x1b?'
p1340
tp1341
Rp1342
ag5
(g469
S'n\xdb\xb6m\xd6i\x1b?'
p1343
tp1344
Rp1345
ag5
(g469
S'\xdb\xb6m\xdb\xcc\x19\x1b?'
p1346
tp1347
Rp1348
ag5
(g469
S'\xdb\xb6m\xdb)\xcb\x1a?'
p1349
tp1350
Rp1351
ag5
(g469
S'\x92$I\x92Y\x7f\x1a?'
p1352
tp1353
Rp1354
ag5
(g469
S'\x00\x00\x00\x0035\x1a?'
p1355
tp1356
Rp1357
ag5
(g469
S'n\xdb\xb6m\xc2\xeb\x19?'
p1358
tp1359
Rp1360
ag5
(g469
S'\x00\x00\x00\x00\xa1\xa0\x19?'
p1361
tp1362
Rp1363
ag5
(g469
S'\x92$I\x92\x96Y\x19?'
p1364
tp1365
Rp1366
ag5
(g469
S'n\xdb\xb6m\xb6\x14\x19?'
p1367
tp1368
Rp1369
ag5
(g469
S'%I\x92$\x88\xd1\x18?'
p1370
tp1371
Rp1372
ag5
(g469
S'\x00\x00\x00\x00K\x90\x18?'
p1373
tp1374
Rp1375
ag5
(g469
S'\xb7m\xdb\xb6\xffO\x18?'
p1376
tp1377
Rp1378
ag5
(g469
S'\x92$I\x92|\x0f\x18?'
p1379
tp1380
Rp1381
asS'np.linalg.norm(self.W)'
p1382
(lp1383
g5
(g469
S'\x84Sb\x84\xfe\xc4W@'
p1384
tp1385
Rp1386
ag5
(g469
S'"c\x17\x1a\x08\xc5W@'
p1387
tp1388
Rp1389
ag5
(g469
S'\xfc!\x8e\x94#\xc5W@'
p1390
tp1391
Rp1392
ag5
(g469
S'\xab\xb2J0m\xc5W@'
p1393
tp1394
Rp1395
ag5
(g469
S'\xf9b\xfaT!\xc6W@'
p1396
tp1397
Rp1398
ag5
(g469
S'\xf1\xb6)\xa5u\xc7W@'
p1399
tp1400
Rp1401
ag5
(g469
S'\xf6\x88\x8d6s\xc9W@'
p1402
tp1403
Rp1404
ag5
(g469
S'\x8b\xc3B\x8a\x12\xccW@'
p1405
tp1406
Rp1407
ag5
(g469
S'\xf1\xb5\xf2\x08\xb6\xd0W@'
p1408
tp1409
Rp1410
ag5
(g469
S'\xdeo\x04,\x1d\xdcW@'
p1411
tp1412
Rp1413
ag5
(g469
S' \x15\xb4uA\xedW@'
p1414
tp1415
Rp1416
ag5
(g469
S'\xb8YAW\x7f\x03X@'
p1417
tp1418
Rp1419
ag5
(g469
S'Y\xeaB\xf4>\x17X@'
p1420
tp1421
Rp1422
ag5
(g469
S'\xd7dS\x01G+X@'
p1423
tp1424
Rp1425
ag5
(g469
S'\xa8W\x80\x8f\x7f?X@'
p1426
tp1427
Rp1428
ag5
(g469
S'o\x8a\x0f\x13\xb4SX@'
p1429
tp1430
Rp1431
ag5
(g469
S'$\x95\x0b>\x19hX@'
p1432
tp1433
Rp1434
ag5
(g469
S'i]\xea\xc1\xd0|X@'
p1435
tp1436
Rp1437
ag5
(g469
S'$2\xe2(p\x91X@'
p1438
tp1439
Rp1440
ag5
(g469
S'\x9c\xc3?\x08\t\xa6X@'
p1441
tp1442
Rp1443
ag5
(g469
S'J\xaad|\x81\xbaX@'
p1444
tp1445
Rp1446
ag5
(g469
S'9IO\xf2\x9e\xcaX@'
p1447
tp1448
Rp1449
ag5
(g469
S'w\xb0\\\xb7B\xdaX@'
p1450
tp1451
Rp1452
ag5
(g469
S'\xf7\x85\xcajk\xe9X@'
p1453
tp1454
Rp1455
ag5
(g469
S'\xb8\x96\xf9\x15\xd4\xf2X@'
p1456
tp1457
Rp1458
ag5
(g469
S'\x03\xb9\x99\xdf\x19\x04Y@'
p1459
tp1460
Rp1461
ag5
(g469
S'\xf8\xbbW\x81\xf1\x14Y@'
p1462
tp1463
Rp1464
ag5
(g469
S'\x07\xcc\xd9\x93\xdc!Y@'
p1465
tp1466
Rp1467
ag5
(g469
S'|\xaa\x0ctY1Y@'
p1468
tp1469
Rp1470
ag5
(g469
S'-\x04\x85R2@Y@'
p1471
tp1472
Rp1473
ag5
(g469
S'\x91\xa4\x8f\x1b\x7fNY@'
p1474
tp1475
Rp1476
ag5
(g469
S'\x81\x19\x91\xe8\x10\\Y@'
p1477
tp1478
Rp1479
ag5
(g469
S'\xe6?\xdd\t\x13iY@'
p1480
tp1481
Rp1482
ag5
(g469
S'\xfc\xac|i\xe0rY@'
p1483
tp1484
Rp1485
ag5
(g469
S'\x9dS\x10vA|Y@'
p1486
tp1487
Rp1488
ag5
(g469
S'bHEF2\x83Y@'
p1489
tp1490
Rp1491
ag5
(g469
S'Y&\xb1\x9e\x0c\x8dY@'
p1492
tp1493
Rp1494
ag5
(g469
S'M\xd4Mpj\x96Y@'
p1495
tp1496
Rp1497
ag5
(g469
S'\xc4}\xc4\x1dY\x9fY@'
p1498
tp1499
Rp1500
ag5
(g469
S'\xc4u\x84\xea\xde\xa7Y@'
p1501
tp1502
Rp1503
ag5
(g469
S'\xdfgn\xf7\x03\xb0Y@'
p1504
tp1505
Rp1506
ag5
(g469
S'\x1at8\r\xcc\xb7Y@'
p1507
tp1508
Rp1509
ag5
(g469
S'\x88f\xf0f<\xbfY@'
p1510
tp1511
Rp1512
ag5
(g469
S'\x82\x96\x8dNW\xc6Y@'
p1513
tp1514
Rp1515
ag5
(g469
S'w\xc7/a!\xcdY@'
p1516
tp1517
Rp1518
ag5
(g469
S'\xf0\x13al\x9d\xd3Y@'
p1519
tp1520
Rp1521
ag5
(g469
S'\xaa\xa9\x8e\xeb\xce\xd9Y@'
p1522
tp1523
Rp1524
ag5
(g469
S'\xc3\xa5\xc7c\xb8\xdfY@'
p1525
tp1526
Rp1527
ag5
(g469
S'\xbdL\x12\xeb\\\xe5Y@'
p1528
tp1529
Rp1530
ag5
(g469
S'\xc8qu\x15\xbf\xeaY@'
p1531
tp1532
Rp1533
ag5
(g469
S'[y\x96\xda\xe1\xefY@'
p1534
tp1535
Rp1536
ag5
(g469
S'1ZEj\xc7\xf4Y@'
p1537
tp1538
Rp1539
ag5
(g469
S'\xf9\x05\xdf\xc9r\xf9Y@'
p1540
tp1541
Rp1542
ag5
(g469
S'\xb5\x86\x17\x01\xe6\xfdY@'
p1543
tp1544
Rp1545
ag5
(g469
S'\xdc\xe8G\xca#\x02Z@'
p1546
tp1547
Rp1548
ag5
(g469
S'\x19pq\x17.\x06Z@'
p1549
tp1550
Rp1551
ag5
(g469
S'\xbcI\xf8\x87\x07\nZ@'
p1552
tp1553
Rp1554
ag5
(g469
S'z\xe7\xdc\xea\xb1\rZ@'
p1555
tp1556
Rp1557
ag5
(g469
S'\xd9\xcb#\x9a/\x11Z@'
p1558
tp1559
Rp1560
ag5
(g469
S'"\x08\xa5V\x82\x14Z@'
p1561
tp1562
Rp1563
ag5
(g469
S'\xdb\xea:V\xac\x17Z@'
p1564
tp1565
Rp1566
ag5
(g469
S'AK\x96\x0e\xaf\x1aZ@'
p1567
tp1568
Rp1569
ag5
(g469
S'\xc6\xb7h\xc0\x8c\x1dZ@'
p1570
tp1571
Rp1572
ag5
(g469
S'_k\x87^F Z@'
p1573
tp1574
Rp1575
ag5
(g469
S'\x8e\xc3[V\xde"Z@'
p1576
tp1577
Rp1578
ag5
(g469
S'\xc0F\x02\xf2U%Z@'
p1579
tp1580
Rp1581
ag5
(g469
S"\x82\x9e\xa5\xeb\xae'Z@"
p1582
tp1583
Rp1584
ag5
(g469
S'\xc3\x0f\xa7h\xea)Z@'
p1585
tp1586
Rp1587
ag5
(g469
S'\x17\xdd\x98\x1d\n,Z@'
p1588
tp1589
Rp1590
ag5
(g469
S'rZ`"\x0f.Z@'
p1591
tp1592
Rp1593
ag5
(g469
S'\xc1\x93R\xe8\xfa/Z@'
p1594
tp1595
Rp1596
ag5
(g469
S'\x82\x13\x1e_\xce1Z@'
p1597
tp1598
Rp1599
ag5
(g469
S'\xca|\xd3\xfc\x8a3Z@'
p1600
tp1601
Rp1602
ag5
(g469
S'dZ\xdf\xa915Z@'
p1603
tp1604
Rp1605
ag5
(g469
S'0\x99}\xa4\xc36Z@'
p1606
tp1607
Rp1608
ag5
(g469
S'\xd7\xe4\x98\xa6A8Z@'
p1609
tp1610
Rp1611
ag5
(g469
S'\xb7oE\xe9\xac9Z@'
p1612
tp1613
Rp1614
ag5
(g469
S'b\xa8l#\x06;Z@'
p1615
tp1616
Rp1617
ag5
(g469
S'\x81\xd9"eN<Z@'
p1618
tp1619
Rp1620
ag5
(g469
S'\xbe\xee\x9cS\x86=Z@'
p1621
tp1622
Rp1623
ag5
(g469
S'\xa8\xf58\xe6\xae>Z@'
p1624
tp1625
Rp1626
ag5
(g469
S'\x18\xfb\xc4\xb1\xc8?Z@'
p1627
tp1628
Rp1629
ag5
(g469
S'\xc5`\x07\x96\xd4@Z@'
p1630
tp1631
Rp1632
ag5
(g469
S'\x03\x82,\x1c\xd3AZ@'
p1633
tp1634
Rp1635
ag5
(g469
S'i\xd5E\r\xc5BZ@'
p1636
tp1637
Rp1638
ag5
(g469
S'\xb3s\xdc\xde\xaaCZ@'
p1639
tp1640
Rp1641
ag5
(g469
S'\x9c\x8c\xe3O\x85DZ@'
p1642
tp1643
Rp1644
ag5
(g469
S'A\x1d\x9c\xceTEZ@'
p1645
tp1646
Rp1647
ag5
(g469
S'&\xa7\xbb\x06\x1aFZ@'
p1648
tp1649
Rp1650
ag5
(g469
S'{\xf7\x19P\xd5FZ@'
p1651
tp1652
Rp1653
ag5
(g469
S'\x99\xf4\x9bK\x87GZ@'
p1654
tp1655
Rp1656
ag5
(g469
S'c\xdd\xb0T0HZ@'
p1657
tp1658
Rp1659
ag5
(g469
S'\xe1y\xed\xf6\xd0HZ@'
p1660
tp1661
Rp1662
ag5
(g469
S'M9~riIZ@'
p1663
tp1664
Rp1665
ag5
(g469
S'\xe8\xbbQV\xfaIZ@'
p1666
tp1667
Rp1668
ag5
(g469
S'\xaaW\x8c\xe7\x83JZ@'
p1669
tp1670
Rp1671
ag5
(g469
S'Ac\xa7\x9c\x06KZ@'
p1672
tp1673
Rp1674
ag5
(g469
S'3\xc9[\xa5\x82KZ@'
p1675
tp1676
Rp1677
ag5
(g469
S'\\\n\x11\x81\xf8KZ@'
p1678
tp1679
Rp1680
ag5
(g469
S'\xb5\xc1}UhLZ@'
p1681
tp1682
Rp1683
ag5
(g469
S'pL\xd4\x8f\xd2LZ@'
p1684
tp1685
Rp1686
ag5
(g469
S'0\xe4\xe4f7MZ@'
p1687
tp1688
Rp1689
ag5
(g469
S'\x1dP\xdc.\x97MZ@'
p1690
tp1691
Rp1692
ag5
(g469
S'\xa6\rf\x15\xf2MZ@'
p1693
tp1694
Rp1695
ag5
(g469
S'\xcd\xd4\xa0jHNZ@'
p1696
tp1697
Rp1698
ag5
(g469
S'\xc8\xda\x93Y\x9aNZ@'
p1699
tp1700
Rp1701
ag5
(g469
S'\xf3\xa2*\x11\xe8NZ@'
p1702
tp1703
Rp1704
ag5
(g469
S'4t\xe2\xd51OZ@'
p1705
tp1706
Rp1707
ag5
(g469
S'\x0c\xcf\xac\xe5wOZ@'
p1708
tp1709
Rp1710
ag5
(g469
S'\xdf\xb1t\\\xbaOZ@'
p1711
tp1712
Rp1713
ag5
(g469
S'\xe6\x10\xa2z\xf9OZ@'
p1714
tp1715
Rp1716
ag5
(g469
S'\xb5TsY5PZ@'
p1717
tp1718
Rp1719
ag5
(g469
S'\xb1\xb7_1nPZ@'
p1720
tp1721
Rp1722
ag5
(g469
S'G\xbc]\x14\xa4PZ@'
p1723
tp1724
Rp1725
ag5
(g469
S'\xef\xa1\x8aA\xd7PZ@'
p1726
tp1727
Rp1728
ag5
(g469
S'1{+\xc4\x07QZ@'
p1729
tp1730
Rp1731
ag5
(g469
S'k\t\x84\xd15QZ@'
p1732
tp1733
Rp1734
ag5
(g469
S'u\xc2\xe2daQZ@'
p1735
tp1736
Rp1737
ag5
(g469
S'\x19\xd27\xc3\x8aQZ@'
p1738
tp1739
Rp1740
ag5
(g469
S'\x9f\xbf\x8f\xfd\xb1QZ@'
p1741
tp1742
Rp1743
ag5
(g469
S'\xb2s\xdd3\xd7QZ@'
p1744
tp1745
Rp1746
ag5
(g469
S':\x11T|\xfaQZ@'
p1747
tp1748
Rp1749
ag5
(g469
S'!\xa4\xa8\xed\x1bRZ@'
p1750
tp1751
Rp1752
ag5
(g469
S'\x11\xbb~\xa2;RZ@'
p1753
tp1754
Rp1755
ag5
(g469
S'\xa8\x1cX\xa9YRZ@'
p1756
tp1757
Rp1758
ag5
(g469
S'\xf8"\xda\x1dvRZ@'
p1759
tp1760
Rp1761
ag5
(g469
S'\x9a5\xa6\x01\x91RZ@'
p1762
tp1763
Rp1764
ag5
(g469
S'-\xbd\xaa}\xaaRZ@'
p1765
tp1766
Rp1767
ag5
(g469
S'\x1c\xdd\xaa\xa4\xc2RZ@'
p1768
tp1769
Rp1770
ag5
(g469
S'w\xef\x0c\x81\xd9RZ@'
p1771
tp1772
Rp1773
ag5
(g469
S'V!\xa4)\xefRZ@'
p1774
tp1775
Rp1776
ag5
(g469
S'pQ\x85\xa9\x03SZ@'
p1777
tp1778
Rp1779
ag5
(g469
S'wG\x03\x14\x17SZ@'
p1780
tp1781
Rp1782
ag5
(g469
S'z6\xcan)SZ@'
p1783
tp1784
Rp1785
ag5
(g469
S'\xdecW\xd0:SZ@'
p1786
tp1787
Rp1788
ag5
(g469
S'/\x8e\x0b7KSZ@'
p1789
tp1790
Rp1791
ag5
(g469
S'\x99\xffa\xbfZSZ@'
p1792
tp1793
Rp1794
ag5
(g469
S'3\x92-qiSZ@'
p1795
tp1796
Rp1797
ag5
(g469
S'\x11\x10qYwSZ@'
p1798
tp1799
Rp1800
ag5
(g469
S'\xfdZ\xa5y\x84SZ@'
p1801
tp1802
Rp1803
ag5
(g469
S'\xc7\x9bq\xe6\x90SZ@'
p1804
tp1805
Rp1806
ag5
(g469
S'\xe1\x85\xe8\xa0\x9cSZ@'
p1807
tp1808
Rp1809
ag5
(g469
S'D\x82\xb0\xb9\xa7SZ@'
p1810
tp1811
Rp1812
ag5
(g469
S'Z\xa6\x06"\xb2SZ@'
p1813
tp1814
Rp1815
ag5
(g469
S'\xd2\x8d\x18\xf7\xbbSZ@'
p1816
tp1817
Rp1818
ag5
(g469
S'\xedpi@\xc5SZ@'
p1819
tp1820
Rp1821
ag5
(g469
S'\xd0\x1a\x9e\x04\xceSZ@'
p1822
tp1823
Rp1824
ag5
(g469
S'^Z\xeaI\xd6SZ@'
p1825
tp1826
Rp1827
ag5
(g469
S'W\x03d\x19\xdeSZ@'
p1828
tp1829
Rp1830
ag5
(g469
S'~\xa4Gk\xe5SZ@'
p1831
tp1832
Rp1833
ag5
(g469
S'A\x1d\xfcV\xecSZ@'
p1834
tp1835
Rp1836
asS'deltas[-1][0]'
p1837
(lp1838
I99
aI99
aI99
aI99
aI99
aI99
aI99
aI99
aI99
aI99
aI99
aI99
aI99
aI99
aI99
aI99
aI99
aI99
aI99
aI99
aI99
aI99
aI99
aI99
aI99
aI99
aI99
aI99
aI99
aI99
aI99
aI99
aI99
aI99
aI99
aI99
aI99
aI99
aI99
aI99
aI99
aI99
aI99
aI99
aI99
aI99
aI99
aI99
aI99
aI99
aI99
aI99
aI99
aI99
aI99
aI99
aI99
aI99
aI99
aI99
aI99
aI99
aI99
aI99
aI99
aI99
aI99
aI99
aI99
aI99
aI99
aI99
aI99
aI99
aI99
aI99
aI99
aI99
aI99
aI99
aI99
aI99
aI99
aI99
aI99
aI99
aI99
aI99
aI99
aI99
aI99
aI99
aI99
aI99
aI99
aI99
aI99
aI99
aI99
aI99
aI99
aI99
aI99
aI99
aI99
aI99
aI99
aI99
aI99
aI99
aI99
aI99
aI99
aI99
aI99
aI99
aI99
aI99
aI99
aI99
aI99
aI99
aI99
aI99
aI99
aI99
aI99
aI99
aI99
aI99
aI99
aI99
aI99
aI99
aI99
aI99
aI99
aI99
aI99
aI99
aI99
aI99
aI99
aI99
aI99
aI99
aI99
aI99
aI99
aI99
aI99
as.